ccopy_reg
_reconstructor
p1
(cfeedparser
FeedParserDict
p2
c__builtin__
dict
p3
(dp4
S'feed'
p5
g1
(g2
g3
(dp6
S'updated'
p7
V2011-11-09T11:00:27+00:00
p8
sS'subtitle'
p9
VNews for nerds, stuff that matters
p10
sS'updated_parsed'
p11
ctime
struct_time
p12
((I2011
I11
I9
I11
I0
I27
I2
I313
I0
t(dtRp13
sS'links'
p14
(lp15
g1
(g2
g3
(dp16
S'href'
p17
Vhttp://slashdot.org/
p18
sS'type'
p19
S'text/html'
p20
sS'rel'
p21
S'alternate'
p22
stRp23
ag1
(g2
g3
(dp24
S'href'
p25
Vhttp://rss.slashdot.org/Slashdot/slashdot
p26
sS'type'
p27
Vapplication/rdf+xml
p28
sS'rel'
p29
Vself
p30
stRp31
ag1
(g2
g3
(dp32
S'href'
p33
Vhttp://pubsubhubbub.appspot.com/
p34
sg19
g20
sS'rel'
p35
Vhub
p36
stRp37
asS'tags'
p38
(lp39
g1
(g2
g3
(dp40
S'term'
p41
VTechnology
p42
sS'scheme'
p43
NsS'label'
p44
NstRp45
asS'image'
p46
g1
(g2
g3
(dp47
g14
(lp48
g1
(g2
g3
(dp49
g19
g20
sg21
g22
stRp50
astRp51
sS'rdf_seq'
p52
V
sS'feedburner_info'
p53
(dp54
S'uri'
p55
Vslashdot/slashdot
p56
ssS'link'
p57
g18
sS'authors'
p58
(lp59
g1
(g2
g3
(dtRp60
asS'rights_detail'
p61
g1
(g2
g3
(dp62
S'base'
p63
Vhttp://rss.slashdot.org/Slashdot/slashdot
p64
sg19
S'text/plain'
p65
sS'language'
p66
NsS'value'
p67
VCopyright 1997-2011, Geeknet, Inc.  All Rights Reserved.
p68
stRp69
sS'publisher_detail'
p70
g1
(g2
g3
(dp71
S'name'
p72
VGeeknet, Inc.
p73
stRp74
sS'author_detail'
p75
g1
(g2
g3
(dp76
S'email'
p77
Vhelp@slashdot.org
p78
stRp79
sS'sy_updatebase'
p80
V1970-01-01T00:00+00:00
p81
sS'publisher'
p82
g73
sg66
Ven-us
p83
sS'title'
p84
VSlashdot
p85
sS'rights'
p86
g68
sS'rdf_li'
p87
(dp88
S'rdf:resource'
p89
Vhttp://yro.slashdot.org/story/11/11/08/199221/two-new-fed-gps-trackers-found-on-suv?utm_source=rss1.0mainlinkanon&utm_medium=feed
p90
ssS'subtitle_detail'
p91
g1
(g2
g3
(dp92
g63
Vhttp://rss.slashdot.org/Slashdot/slashdot
p93
sg19
S'text/html'
p94
sg66
Nsg67
g10
stRp95
sS'title_detail'
p96
g1
(g2
g3
(dp97
g63
Vhttp://rss.slashdot.org/Slashdot/slashdot
p98
sg19
S'text/plain'
p99
sg66
Nsg67
g85
stRp100
sS'author'
p101
g78
sS'sy_updateperiod'
p102
Vhourly
p103
sS'entries'
p104
V
sS'sy_updatefrequency'
p105
V1
sS'textinput'
p106
g1
(g2
g3
(dp107
g72
Vquery
p108
sg14
(lp109
g1
(g2
g3
(dp110
g19
g20
sg21
g22
stRp111
astRp112
stRp113
sS'status'
p114
I200
sg7
g12
((I2011
I11
I9
I11
I3
I42
I2
I313
I0
t(dtRp115
sS'encoding'
p116
S'ISO-8859-1'
p117
sS'bozo'
p118
I0
sg104
(lp119
g1
(g2
g3
(dp120
S'summary_detail'
p121
g1
(g2
g3
(dp122
g63
Vhttp://rss.slashdot.org/Slashdot/slashdot
p123
sg19
S'text/html'
p124
sg66
Nsg67
V<p><a href="http://feedads.g.doubleclick.net/~at/lCwVrZaPV9Ih_Y5_AHrLlQSJsms/0/da"><img border="0" ismap="true" src="http://feedads.g.doubleclick.net/~at/lCwVrZaPV9Ih_Y5_AHrLlQSJsms/0/di" /></a><br />\u000a<a href="http://feedads.g.doubleclick.net/~at/lCwVrZaPV9Ih_Y5_AHrLlQSJsms/1/da"><img border="0" ismap="true" src="http://feedads.g.doubleclick.net/~at/lCwVrZaPV9Ih_Y5_AHrLlQSJsms/1/di" /></a></p>Meshach writes "There's an interesting story at the WSJ about how Barnes &amp; Noble lobbied the Justice Department to open a new antitrust probe against Microsoft regarding their abuse of the patent system. B&amp;N saw Microsoft filing a slew of frivolous patents in order to stop the development of handheld devices, potentially affecting their Nook reader. The article mentions how Microsoft has a similar racket going with various Android device manufacturers, but B&amp;N does not have the cash reserves to support similar licensing, and is fighting back."\u000aReader qantr points out related news: Chinese telecoms firm Huawei has confirmed that Microsoft is demanding royalty payments over products running Android.<p><a href="http://www.facebook.com/sharer.php?u=http%3A%2F%2Fyro.slashdot.org%2Fstory%2F11%2F11%2F09%2F0453227%2Fbn-sought-doj-inquiry-over-microsoft-patents%3Futm_source%3Dslashdot%26utm_medium%3Dfacebook" target="_blank" title="Share on Facebook"><img src="http://a.fsdn.com/sd/facebook_icon_large.png" /></a>\u000a   \u000a      <a href="http://twitter.com/home?status=B%26amp%3BN+Sought+DoJ+Inquiry+Over+Microsoft+Patents%3A+http%3A%2F%2Fbit.ly%2Fsy3qPW" target="_blank" title="Share on Twitter"><img src="http://a.fsdn.com/sd/twitter_icon_large.png" /></a></p><p><a href="http://yro.slashdot.org/story/11/11/09/0453227/bn-sought-doj-inquiry-over-microsoft-patents?utm_source=rss1.0moreanon&amp;utm_medium=feed">Read more of this story</a> at Slashdot.</p><img height="1" src="http://feeds.feedburner.com/~r/Slashdot/slashdot/~4/ZX8PEqt5jxg" width="1" />
p125
stRp126
sg11
g12
((I2011
I11
I9
I10
I14
I0
I2
I313
I0
t(dtRp127
sg14
(lp128
g1
(g2
g3
(dp129
g17
Vhttp://rss.slashdot.org/~r/Slashdot/slashdot/~3/ZX8PEqt5jxg/bn-sought-doj-inquiry-over-microsoft-patents
p130
sg19
g20
sg21
g22
stRp131
asg38
(lp132
g1
(g2
g3
(dp133
g41
Vmicrosoft
p134
sg43
Nsg44
NstRp135
asS'slash_department'
p136
Vsanity-check-in-aisle-four
p137
sS'feedburner_origlink'
p138
Vhttp://yro.slashdot.org/story/11/11/09/0453227/bn-sought-doj-inquiry-over-microsoft-patents?utm_source=rss1.0mainlinkanon&utm_medium=feed
p139
sg7
V2011-11-09T10:14:00+00:00
p140
sS'slash_section'
p141
Vyro
p142
sg57
g130
sg58
(lp143
g1
(g2
g3
(dtRp144
asS'author_detail'
p145
g1
(g2
g3
(dp146
g72
VSoulskill
p147
stRp148
sS'slash_hit_parade'
p149
V17,17,11,9,2,1,0
p150
sS'id'
p151
Vhttp://yro.slashdot.org/story/11/11/09/0453227/bn-sought-doj-inquiry-over-microsoft-patents?utm_source=rss1.0mainlinkanon&utm_medium=feed
p152
sS'slash_comments'
p153
V17
p154
sg84
VB&amp;N Sought DoJ Inquiry Over Microsoft Patents
p155
sg101
g147
sS'summary'
p156
V<p><a href="http://feedads.g.doubleclick.net/~at/lCwVrZaPV9Ih_Y5_AHrLlQSJsms/0/da"><img border="0" ismap="true" src="http://feedads.g.doubleclick.net/~at/lCwVrZaPV9Ih_Y5_AHrLlQSJsms/0/di" /></a><br />\u000a<a href="http://feedads.g.doubleclick.net/~at/lCwVrZaPV9Ih_Y5_AHrLlQSJsms/1/da"><img border="0" ismap="true" src="http://feedads.g.doubleclick.net/~at/lCwVrZaPV9Ih_Y5_AHrLlQSJsms/1/di" /></a></p>Meshach writes "There's an interesting story at the WSJ about how Barnes &amp; Noble lobbied the Justice Department to open a new antitrust probe against Microsoft regarding their abuse of the patent system. B&amp;N saw Microsoft filing a slew of frivolous patents in order to stop the development of handheld devices, potentially affecting their Nook reader. The article mentions how Microsoft has a similar racket going with various Android device manufacturers, but B&amp;N does not have the cash reserves to support similar licensing, and is fighting back."\u000aReader qantr points out related news: Chinese telecoms firm Huawei has confirmed that Microsoft is demanding royalty payments over products running Android.<p><a href="http://www.facebook.com/sharer.php?u=http\u005c%3A\u005c%2F\u005c%2Fyro.slashdot.org\u005c%2Fstory\u005c%2F11\u005c%2F11\u005c%2F09\u005c%2F0453227\u005c%2Fbn-sought-doj-inquiry-over-microsoft-patents\u005c%3Futm_source\u005c%3Dslashdot\u005c%26utm_medium\u005c%3Dfacebook" target="_blank" title="Share on Facebook"><img src="http://a.fsdn.com/sd/facebook_icon_large.png" /></a>\u000a   \u000a      <a href="http://twitter.com/home?status=B\u005c%26amp\u005c%3BN+Sought+DoJ+Inquiry+Over+Microsoft+Patents\u005c%3A+http\u005c%3A\u005c%2F\u005c%2Fbit.ly\u005c%2Fsy3qPW" target="_blank" title="Share on Twitter"><img src="http://a.fsdn.com/sd/twitter_icon_large.png" /></a></p><p><a href="http://yro.slashdot.org/story/11/11/09/0453227/bn-sought-doj-inquiry-over-microsoft-patents?utm_source=rss1.0moreanon&amp;utm_medium=feed">Read more of this story</a> at Slashdot.</p><img height="1" src="http://feeds.feedburner.com/~r/Slashdot/slashdot/~4/ZX8PEqt5jxg" width="1" />
p157
sS'title_detail'
p158
g1
(g2
g3
(dp159
g63
Vhttp://rss.slashdot.org/Slashdot/slashdot
p160
sg19
S'text/html'
p161
sg66
Nsg67
g155
stRp162
sS'canto_state'
p163
(lp164
VSlashdot
p165
aV*
aS'read'
p166
astRp167
ag1
(g2
g3
(dp168
S'summary_detail'
p169
g1
(g2
g3
(dp170
g63
Vhttp://rss.slashdot.org/Slashdot/slashdot
p171
sg19
S'text/html'
p172
sg66
Nsg67
V<p><a href="http://feedads.g.doubleclick.net/~at/8iW60ywq-5mkL07niPXj2YgJq_Q/0/da"><img border="0" ismap="true" src="http://feedads.g.doubleclick.net/~at/8iW60ywq-5mkL07niPXj2YgJq_Q/0/di" /></a><br />\u000a<a href="http://feedads.g.doubleclick.net/~at/8iW60ywq-5mkL07niPXj2YgJq_Q/1/da"><img border="0" ismap="true" src="http://feedads.g.doubleclick.net/~at/8iW60ywq-5mkL07niPXj2YgJq_Q/1/di" /></a></p>Activision released the latest iteration of their blockbuster first-person shooter franchise yesterday, Call of Duty: Modern Warfare 3, narrowly avoiding a whole year-long gap between this one and the last Call of Duty game. Still, analysts estimated pre-orders at 9 million worldwide, and expect the game to generate another billion dollars in sales, give or take. Reviews for the game range from "amazing" to "slightly less than amazing." Eurogamer sums it up simply: "Modern Warfare 3 is exactly the game you expect. It's conservative in every sense of the word, a paean to military superiority which never ventures far beyond gameplay parameters that were set in stone in 2007. ... With such a well-rehearsed recipe to follow, there's more room here for innovation than there is for improvement. There are plenty who would love to see Call of Duty dragged through the mud for its lack of new ideas, but the game itself is too confidently constructed, too generous with its pleasures, to deserve any lasting vitriol. This is a ferocious and satisfying game that knows exactly what players expect, and delivers on that promise with bullish confidence."<p><a href="http://www.facebook.com/sharer.php?u=http%3A%2F%2Fgames.slashdot.org%2Fstory%2F11%2F11%2F09%2F0646211%2Fmodern-warfare-3-released%3Futm_source%3Dslashdot%26utm_medium%3Dfacebook" target="_blank" title="Share on Facebook"><img src="http://a.fsdn.com/sd/facebook_icon_large.png" /></a>\u000a   \u000a      <a href="http://twitter.com/home?status=Modern+Warfare+3+Released%3A+http%3A%2F%2Fbit.ly%2FvIbTg3" target="_blank" title="Share on Twitter"><img src="http://a.fsdn.com/sd/twitter_icon_large.png" /></a></p><p><a href="http://games.slashdot.org/story/11/11/09/0646211/modern-warfare-3-released?utm_source=rss1.0moreanon&amp;utm_medium=feed">Read more of this story</a> at Slashdot.</p><img height="1" src="http://feeds.feedburner.com/~r/Slashdot/slashdot/~4/-EgLoq5Ffkw" width="1" />
p173
stRp174
sg11
g12
((I2011
I11
I9
I8
I32
I0
I2
I313
I0
t(dtRp175
sg14
(lp176
g1
(g2
g3
(dp177
g17
Vhttp://rss.slashdot.org/~r/Slashdot/slashdot/~3/-EgLoq5Ffkw/modern-warfare-3-released
p178
sg19
g20
sg21
g22
stRp179
asg38
(lp180
g1
(g2
g3
(dp181
g41
Vfps
p182
sg43
Nsg44
NstRp183
asS'slash_department'
p184
Vnow-with-gunnier-guns
p185
sS'feedburner_origlink'
p186
Vhttp://games.slashdot.org/story/11/11/09/0646211/modern-warfare-3-released?utm_source=rss1.0mainlinkanon&utm_medium=feed
p187
sg7
V2011-11-09T08:32:00+00:00
p188
sS'slash_section'
p189
Vgames
p190
sg57
g178
sg58
(lp191
g1
(g2
g3
(dtRp192
asS'author_detail'
p193
g1
(g2
g3
(dp194
g72
VSoulskill
p195
stRp196
sS'slash_hit_parade'
p197
V44,44,31,25,4,0,0
p198
sg151
Vhttp://games.slashdot.org/story/11/11/09/0646211/modern-warfare-3-released?utm_source=rss1.0mainlinkanon&utm_medium=feed
p199
sS'slash_comments'
p200
V44
p201
sg84
V<em>Modern Warfare 3</em> Released
p202
sg101
g195
sg156
V<p><a href="http://feedads.g.doubleclick.net/~at/8iW60ywq-5mkL07niPXj2YgJq_Q/0/da"><img border="0" ismap="true" src="http://feedads.g.doubleclick.net/~at/8iW60ywq-5mkL07niPXj2YgJq_Q/0/di" /></a><br />\u000a<a href="http://feedads.g.doubleclick.net/~at/8iW60ywq-5mkL07niPXj2YgJq_Q/1/da"><img border="0" ismap="true" src="http://feedads.g.doubleclick.net/~at/8iW60ywq-5mkL07niPXj2YgJq_Q/1/di" /></a></p>Activision released the latest iteration of their blockbuster first-person shooter franchise yesterday, Call of Duty: Modern Warfare 3, narrowly avoiding a whole year-long gap between this one and the last Call of Duty game. Still, analysts estimated pre-orders at 9 million worldwide, and expect the game to generate another billion dollars in sales, give or take. Reviews for the game range from "amazing" to "slightly less than amazing." Eurogamer sums it up simply: "Modern Warfare 3 is exactly the game you expect. It's conservative in every sense of the word, a paean to military superiority which never ventures far beyond gameplay parameters that were set in stone in 2007. ... With such a well-rehearsed recipe to follow, there's more room here for innovation than there is for improvement. There are plenty who would love to see Call of Duty dragged through the mud for its lack of new ideas, but the game itself is too confidently constructed, too generous with its pleasures, to deserve any lasting vitriol. This is a ferocious and satisfying game that knows exactly what players expect, and delivers on that promise with bullish confidence."<p><a href="http://www.facebook.com/sharer.php?u=http\u005c%3A\u005c%2F\u005c%2Fgames.slashdot.org\u005c%2Fstory\u005c%2F11\u005c%2F11\u005c%2F09\u005c%2F0646211\u005c%2Fmodern-warfare-3-released\u005c%3Futm_source\u005c%3Dslashdot\u005c%26utm_medium\u005c%3Dfacebook" target="_blank" title="Share on Facebook"><img src="http://a.fsdn.com/sd/facebook_icon_large.png" /></a>\u000a   \u000a      <a href="http://twitter.com/home?status=Modern+Warfare+3+Released\u005c%3A+http\u005c%3A\u005c%2F\u005c%2Fbit.ly\u005c%2FvIbTg3" target="_blank" title="Share on Twitter"><img src="http://a.fsdn.com/sd/twitter_icon_large.png" /></a></p><p><a href="http://games.slashdot.org/story/11/11/09/0646211/modern-warfare-3-released?utm_source=rss1.0moreanon&amp;utm_medium=feed">Read more of this story</a> at Slashdot.</p><img height="1" src="http://feeds.feedburner.com/~r/Slashdot/slashdot/~4/-EgLoq5Ffkw" width="1" />
p203
sS'title_detail'
p204
g1
(g2
g3
(dp205
g63
Vhttp://rss.slashdot.org/Slashdot/slashdot
p206
sg19
g161
sg66
Nsg67
g202
stRp207
sg163
(lp208
VSlashdot
p209
aV*
aS'read'
p210
astRp211
ag1
(g2
g3
(dp212
S'summary_detail'
p213
g1
(g2
g3
(dp214
g63
Vhttp://rss.slashdot.org/Slashdot/slashdot
p215
sg19
S'text/html'
p216
sg66
Nsg67
V<p><a href="http://feedads.g.doubleclick.net/~at/OuKL7825tnaLR2Pw-wb-_2qXAU8/0/da"><img border="0" ismap="true" src="http://feedads.g.doubleclick.net/~at/OuKL7825tnaLR2Pw-wb-_2qXAU8/0/di" /></a><br />\u000a<a href="http://feedads.g.doubleclick.net/~at/OuKL7825tnaLR2Pw-wb-_2qXAU8/1/da"><img border="0" ismap="true" src="http://feedads.g.doubleclick.net/~at/OuKL7825tnaLR2Pw-wb-_2qXAU8/1/di" /></a></p>An anonymous reader writes with news that Russia's Phobos-Grunt spacecraft has launched, taking the first step on its mission to travel to Phobos, the larger of Mars' two moons. When (and if &mdash; see below) it lands on Phobos, the probe will collect a soil sample and attempt to return it to Earth.\u000a"Russia&rsquo;s Federal Space Agency said the craft separated successfully from the booster about 11 minutes later. ... The return vehicle is expected to carry up to 200 grams (7 ounces) of soil from Phobos back to Earth in August 2014. The $170 million endeavor would be Russia&rsquo;s first interplanetary mission since Soviet times. A previous 1996 robotic mission to Mars ended in failure when the probe crashed in the Pacific following an engine failure."\u000aUnfortunately, there appears to have been a problem with the launch. Details are uncertain at this point, but the probe reportedly made it to orbit intact, and the mission is not necessarily ruined.<p><a href="http://www.facebook.com/sharer.php?u=http%3A%2F%2Fscience.slashdot.org%2Fstory%2F11%2F11%2F09%2F0232218%2Fphobos-grunt-launches-to-retrieve-a-sample-of-phobos%3Futm_source%3Dslashdot%26utm_medium%3Dfacebook" target="_blank" title="Share on Facebook"><img src="http://a.fsdn.com/sd/facebook_icon_large.png" /></a>\u000a   \u000a      <a href="http://twitter.com/home?status=Phobos-Grunt+Launches+To+Retrieve+a+Sample+of+Phobos%3A+http%3A%2F%2Fbit.ly%2FsOuVwT" target="_blank" title="Share on Twitter"><img src="http://a.fsdn.com/sd/twitter_icon_large.png" /></a></p><p><a href="http://science.slashdot.org/story/11/11/09/0232218/phobos-grunt-launches-to-retrieve-a-sample-of-phobos?utm_source=rss1.0moreanon&amp;utm_medium=feed">Read more of this story</a> at Slashdot.</p><img height="1" src="http://feeds.feedburner.com/~r/Slashdot/slashdot/~4/H51L6xt5vUU" width="1" />
p217
stRp218
sg11
g12
((I2011
I11
I9
I7
I8
I0
I2
I313
I0
t(dtRp219
sg14
(lp220
g1
(g2
g3
(dp221
g17
Vhttp://rss.slashdot.org/~r/Slashdot/slashdot/~3/H51L6xt5vUU/phobos-grunt-launches-to-retrieve-a-sample-of-phobos
p222
sg19
g20
sg21
g22
stRp223
asg38
(lp224
g1
(g2
g3
(dp225
g41
Vspace
p226
sg43
Nsg44
NstRp227
asS'slash_department'
p228
Vgo-get-'em
p229
sS'feedburner_origlink'
p230
Vhttp://science.slashdot.org/story/11/11/09/0232218/phobos-grunt-launches-to-retrieve-a-sample-of-phobos?utm_source=rss1.0mainlinkanon&utm_medium=feed
p231
sg7
V2011-11-09T07:08:00+00:00
p232
sS'slash_section'
p233
Vscience
p234
sg57
g222
sg58
(lp235
g1
(g2
g3
(dtRp236
asS'author_detail'
p237
g1
(g2
g3
(dp238
g72
VSoulskill
p239
stRp240
sS'slash_hit_parade'
p241
V28,28,19,13,3,1,1
p242
sg151
Vhttp://science.slashdot.org/story/11/11/09/0232218/phobos-grunt-launches-to-retrieve-a-sample-of-phobos?utm_source=rss1.0mainlinkanon&utm_medium=feed
p243
sS'slash_comments'
p244
V28
p245
sg84
VPhobos-Grunt Launches To Retrieve a Sample of Phobos
p246
sg101
g239
sg156
V<p><a href="http://feedads.g.doubleclick.net/~at/OuKL7825tnaLR2Pw-wb-_2qXAU8/0/da"><img border="0" ismap="true" src="http://feedads.g.doubleclick.net/~at/OuKL7825tnaLR2Pw-wb-_2qXAU8/0/di" /></a><br />\u000a<a href="http://feedads.g.doubleclick.net/~at/OuKL7825tnaLR2Pw-wb-_2qXAU8/1/da"><img border="0" ismap="true" src="http://feedads.g.doubleclick.net/~at/OuKL7825tnaLR2Pw-wb-_2qXAU8/1/di" /></a></p>An anonymous reader writes with news that Russia's Phobos-Grunt spacecraft has launched, taking the first step on its mission to travel to Phobos, the larger of Mars' two moons. When (and if &mdash; see below) it lands on Phobos, the probe will collect a soil sample and attempt to return it to Earth.\u000a"Russia&rsquo;s Federal Space Agency said the craft separated successfully from the booster about 11 minutes later. ... The return vehicle is expected to carry up to 200 grams (7 ounces) of soil from Phobos back to Earth in August 2014. The $170 million endeavor would be Russia&rsquo;s first interplanetary mission since Soviet times. A previous 1996 robotic mission to Mars ended in failure when the probe crashed in the Pacific following an engine failure."\u000aUnfortunately, there appears to have been a problem with the launch. Details are uncertain at this point, but the probe reportedly made it to orbit intact, and the mission is not necessarily ruined.<p><a href="http://www.facebook.com/sharer.php?u=http\u005c%3A\u005c%2F\u005c%2Fscience.slashdot.org\u005c%2Fstory\u005c%2F11\u005c%2F11\u005c%2F09\u005c%2F0232218\u005c%2Fphobos-grunt-launches-to-retrieve-a-sample-of-phobos\u005c%3Futm_source\u005c%3Dslashdot\u005c%26utm_medium\u005c%3Dfacebook" target="_blank" title="Share on Facebook"><img src="http://a.fsdn.com/sd/facebook_icon_large.png" /></a>\u000a   \u000a      <a href="http://twitter.com/home?status=Phobos-Grunt+Launches+To+Retrieve+a+Sample+of+Phobos\u005c%3A+http\u005c%3A\u005c%2F\u005c%2Fbit.ly\u005c%2FsOuVwT" target="_blank" title="Share on Twitter"><img src="http://a.fsdn.com/sd/twitter_icon_large.png" /></a></p><p><a href="http://science.slashdot.org/story/11/11/09/0232218/phobos-grunt-launches-to-retrieve-a-sample-of-phobos?utm_source=rss1.0moreanon&amp;utm_medium=feed">Read more of this story</a> at Slashdot.</p><img height="1" src="http://feeds.feedburner.com/~r/Slashdot/slashdot/~4/H51L6xt5vUU" width="1" />
p247
sS'title_detail'
p248
g1
(g2
g3
(dp249
g63
Vhttp://rss.slashdot.org/Slashdot/slashdot
p250
sg19
S'text/plain'
p251
sg66
Nsg67
g246
stRp252
sg163
(lp253
VSlashdot
p254
aV*
aS'read'
p255
astRp256
ag1
(g2
g3
(dp257
S'summary_detail'
p258
g1
(g2
g3
(dp259
g63
Vhttp://rss.slashdot.org/Slashdot/slashdot
p260
sg19
S'text/html'
p261
sg66
Nsg67
V<p><a href="http://feedads.g.doubleclick.net/~at/4m6zAOSN_A5X163g_x9Puo59sZc/0/da"><img border="0" ismap="true" src="http://feedads.g.doubleclick.net/~at/4m6zAOSN_A5X163g_x9Puo59sZc/0/di" /></a><br />\u000a<a href="http://feedads.g.doubleclick.net/~at/4m6zAOSN_A5X163g_x9Puo59sZc/1/da"><img border="0" ismap="true" src="http://feedads.g.doubleclick.net/~at/4m6zAOSN_A5X163g_x9Puo59sZc/1/di" /></a></p>hessian writes with this quote from the Electronic Frontier Foundation about the Stop Online Piracy Act:\u000a"Of course the word 'blacklist' does not appear in the bill's text &mdash; the folks who wrote it know Americans don't approve of blatant censorship. The early versions of PROTECT-IP, the Senate's counterpart to SOPA, did include an explicit Blacklist Provision, but this transparent attempt at extrajudicial censorship was so offensive that the Senate had to re-write that part of the bill. However, provisions that encourage unofficial blacklisting remained, and they are still alive and well in SOPA. First, the new law would allow the Attorney General to cut off sites from the Internet, essentially 'blacklisting' companies from doing business on the web. Under section 102, the Attorney General can seek a court order that would force search engines, DNS providers, servers, payment processors, and advertisers to stop doing business with allegedly infringing websites. Second, the bill encourages private corporations to create a literal target list&mdash;a process that is ripe for abuse."<p><a href="http://www.facebook.com/sharer.php?u=http%3A%2F%2Fyro.slashdot.org%2Fstory%2F11%2F11%2F09%2F0436200%2Fstop-online-piracy-act-supports-blacklisting-says-eff%3Futm_source%3Dslashdot%26utm_medium%3Dfacebook" target="_blank" title="Share on Facebook"><img src="http://a.fsdn.com/sd/facebook_icon_large.png" /></a>\u000a   \u000a      <a href="http://twitter.com/home?status=Stop+Online+Piracy+Act+Supports+Blacklisting%2C+Says+EFF%3A+http%3A%2F%2Fbit.ly%2Fs5Mpm1" target="_blank" title="Share on Twitter"><img src="http://a.fsdn.com/sd/twitter_icon_large.png" /></a></p><p><a href="http://yro.slashdot.org/story/11/11/09/0436200/stop-online-piracy-act-supports-blacklisting-says-eff?utm_source=rss1.0moreanon&amp;utm_medium=feed">Read more of this story</a> at Slashdot.</p><img height="1" src="http://feeds.feedburner.com/~r/Slashdot/slashdot/~4/_A2FMQZqzKA" width="1" />
p262
stRp263
sg11
g12
((I2011
I11
I9
I5
I15
I0
I2
I313
I0
t(dtRp264
sg14
(lp265
g1
(g2
g3
(dp266
g17
Vhttp://rss.slashdot.org/~r/Slashdot/slashdot/~3/_A2FMQZqzKA/stop-online-piracy-act-supports-blacklisting-says-eff
p267
sg19
g20
sg21
g22
stRp268
asg38
(lp269
g1
(g2
g3
(dp270
g41
Vgovernment
p271
sg43
Nsg44
NstRp272
asS'slash_department'
p273
Vby-any-other-name
p274
sS'feedburner_origlink'
p275
Vhttp://yro.slashdot.org/story/11/11/09/0436200/stop-online-piracy-act-supports-blacklisting-says-eff?utm_source=rss1.0mainlinkanon&utm_medium=feed
p276
sg7
V2011-11-09T05:15:00+00:00
p277
sS'slash_section'
p278
Vyro
p279
sg57
g267
sg58
(lp280
g1
(g2
g3
(dtRp281
asS'author_detail'
p282
g1
(g2
g3
(dp283
g72
VSoulskill
p284
stRp285
sS'slash_hit_parade'
p286
V40,37,26,22,9,3,3
p287
sg151
Vhttp://yro.slashdot.org/story/11/11/09/0436200/stop-online-piracy-act-supports-blacklisting-says-eff?utm_source=rss1.0mainlinkanon&utm_medium=feed
p288
sS'slash_comments'
p289
V40
p290
sg84
VStop Online Piracy Act Supports Blacklisting, Says EFF
p291
sg101
g284
sg156
V<p><a href="http://feedads.g.doubleclick.net/~at/4m6zAOSN_A5X163g_x9Puo59sZc/0/da"><img border="0" ismap="true" src="http://feedads.g.doubleclick.net/~at/4m6zAOSN_A5X163g_x9Puo59sZc/0/di" /></a><br />\u000a<a href="http://feedads.g.doubleclick.net/~at/4m6zAOSN_A5X163g_x9Puo59sZc/1/da"><img border="0" ismap="true" src="http://feedads.g.doubleclick.net/~at/4m6zAOSN_A5X163g_x9Puo59sZc/1/di" /></a></p>hessian writes with this quote from the Electronic Frontier Foundation about the Stop Online Piracy Act:\u000a"Of course the word 'blacklist' does not appear in the bill's text &mdash; the folks who wrote it know Americans don't approve of blatant censorship. The early versions of PROTECT-IP, the Senate's counterpart to SOPA, did include an explicit Blacklist Provision, but this transparent attempt at extrajudicial censorship was so offensive that the Senate had to re-write that part of the bill. However, provisions that encourage unofficial blacklisting remained, and they are still alive and well in SOPA. First, the new law would allow the Attorney General to cut off sites from the Internet, essentially 'blacklisting' companies from doing business on the web. Under section 102, the Attorney General can seek a court order that would force search engines, DNS providers, servers, payment processors, and advertisers to stop doing business with allegedly infringing websites. Second, the bill encourages private corporations to create a literal target list&mdash;a process that is ripe for abuse."<p><a href="http://www.facebook.com/sharer.php?u=http\u005c%3A\u005c%2F\u005c%2Fyro.slashdot.org\u005c%2Fstory\u005c%2F11\u005c%2F11\u005c%2F09\u005c%2F0436200\u005c%2Fstop-online-piracy-act-supports-blacklisting-says-eff\u005c%3Futm_source\u005c%3Dslashdot\u005c%26utm_medium\u005c%3Dfacebook" target="_blank" title="Share on Facebook"><img src="http://a.fsdn.com/sd/facebook_icon_large.png" /></a>\u000a   \u000a      <a href="http://twitter.com/home?status=Stop+Online+Piracy+Act+Supports+Blacklisting\u005c%2C+Says+EFF\u005c%3A+http\u005c%3A\u005c%2F\u005c%2Fbit.ly\u005c%2Fs5Mpm1" target="_blank" title="Share on Twitter"><img src="http://a.fsdn.com/sd/twitter_icon_large.png" /></a></p><p><a href="http://yro.slashdot.org/story/11/11/09/0436200/stop-online-piracy-act-supports-blacklisting-says-eff?utm_source=rss1.0moreanon&amp;utm_medium=feed">Read more of this story</a> at Slashdot.</p><img height="1" src="http://feeds.feedburner.com/~r/Slashdot/slashdot/~4/_A2FMQZqzKA" width="1" />
p292
sS'title_detail'
p293
g1
(g2
g3
(dp294
g63
Vhttp://rss.slashdot.org/Slashdot/slashdot
p295
sg19
S'text/plain'
p296
sg66
Nsg67
g291
stRp297
sg163
(lp298
VSlashdot
p299
aV*
ag255
astRp300
ag1
(g2
g3
(dp301
S'summary_detail'
p302
g1
(g2
g3
(dp303
g63
Vhttp://rss.slashdot.org/Slashdot/slashdot
p304
sg19
S'text/html'
p305
sg66
Nsg67
V<p><a href="http://feedads.g.doubleclick.net/~at/lTIG_iKH7SKYmS0aPEHmh8ExsNY/0/da"><img border="0" ismap="true" src="http://feedads.g.doubleclick.net/~at/lTIG_iKH7SKYmS0aPEHmh8ExsNY/0/di" /></a><br />\u000a<a href="http://feedads.g.doubleclick.net/~at/lTIG_iKH7SKYmS0aPEHmh8ExsNY/1/da"><img border="0" ismap="true" src="http://feedads.g.doubleclick.net/~at/lTIG_iKH7SKYmS0aPEHmh8ExsNY/1/di" /></a></p>An anonymous reader sends this excerpt from an AP report:\u000a"'Sprinkling' sounds like a fairly harmless practice, but in the hands of sophisticated counterfeiters it could deceive a major weapons manufacturer and possibly endanger the lives of U.S. troops. It's a process of mixing authentic electronic parts with fake ones in hopes that the counterfeits will not be detected when companies test the components for multimillion-dollar missile systems, helicopters and aircraft. It was just one of the brazen steps described Tuesday at a Senate Armed Services Committee hearing examining the national security and economic implications of suspect counterfeit electronics &mdash; mostly from China &mdash; inundating the Pentagon's supply chain. ... The committee's ongoing investigation found about 1,800 cases of suspect counterfeit electronics being sold to the Pentagon. The total number of parts in these cases topped 1 million. By the semiconductor industry's estimates, counterfeiting costs $7.5 billion a year in lost revenue and about 11,000 U.S. jobs."<p><a href="http://www.facebook.com/sharer.php?u=http%3A%2F%2Ftech.slashdot.org%2Fstory%2F11%2F11%2F09%2F0255231%2Fus-military-trying-to-weed-out-counterfeit-parts%3Futm_source%3Dslashdot%26utm_medium%3Dfacebook" target="_blank" title="Share on Facebook"><img src="http://a.fsdn.com/sd/facebook_icon_large.png" /></a>\u000a   \u000a      <a href="http://twitter.com/home?status=US+Military+Trying+To+Weed+Out+Counterfeit+Parts%3A+http%3A%2F%2Fbit.ly%2Fv5Z3ha" target="_blank" title="Share on Twitter"><img src="http://a.fsdn.com/sd/twitter_icon_large.png" /></a></p><p><a href="http://tech.slashdot.org/story/11/11/09/0255231/us-military-trying-to-weed-out-counterfeit-parts?utm_source=rss1.0moreanon&amp;utm_medium=feed">Read more of this story</a> at Slashdot.</p><img height="1" src="http://feeds.feedburner.com/~r/Slashdot/slashdot/~4/-usKu_CCkbM" width="1" />
p306
stRp307
sg11
g12
((I2011
I11
I9
I3
I11
I0
I2
I313
I0
t(dtRp308
sg14
(lp309
g1
(g2
g3
(dp310
g17
Vhttp://rss.slashdot.org/~r/Slashdot/slashdot/~3/-usKu_CCkbM/us-military-trying-to-weed-out-counterfeit-parts
p311
sg19
g20
sg21
g22
stRp312
asg38
(lp313
g1
(g2
g3
(dp314
g41
Vmilitary
p315
sg43
Nsg44
NstRp316
asS'slash_department'
p317
Vthey-should-form-an-anti-counterfeiting-trade-agreement
p318
sS'feedburner_origlink'
p319
Vhttp://tech.slashdot.org/story/11/11/09/0255231/us-military-trying-to-weed-out-counterfeit-parts?utm_source=rss1.0mainlinkanon&utm_medium=feed
p320
sg7
V2011-11-09T03:11:00+00:00
p321
sS'slash_section'
p322
Vtechnology
p323
sg57
g311
sg58
(lp324
g1
(g2
g3
(dtRp325
asS'author_detail'
p326
g1
(g2
g3
(dp327
g72
VSoulskill
p328
stRp329
sS'slash_hit_parade'
p330
V117,112,85,69,15,7,3
p331
sg151
Vhttp://tech.slashdot.org/story/11/11/09/0255231/us-military-trying-to-weed-out-counterfeit-parts?utm_source=rss1.0mainlinkanon&utm_medium=feed
p332
sS'slash_comments'
p333
V117
p334
sg84
VUS Military Trying To Weed Out Counterfeit Parts
p335
sg101
g328
sg156
V<p><a href="http://feedads.g.doubleclick.net/~at/lTIG_iKH7SKYmS0aPEHmh8ExsNY/0/da"><img border="0" ismap="true" src="http://feedads.g.doubleclick.net/~at/lTIG_iKH7SKYmS0aPEHmh8ExsNY/0/di" /></a><br />\u000a<a href="http://feedads.g.doubleclick.net/~at/lTIG_iKH7SKYmS0aPEHmh8ExsNY/1/da"><img border="0" ismap="true" src="http://feedads.g.doubleclick.net/~at/lTIG_iKH7SKYmS0aPEHmh8ExsNY/1/di" /></a></p>An anonymous reader sends this excerpt from an AP report:\u000a"'Sprinkling' sounds like a fairly harmless practice, but in the hands of sophisticated counterfeiters it could deceive a major weapons manufacturer and possibly endanger the lives of U.S. troops. It's a process of mixing authentic electronic parts with fake ones in hopes that the counterfeits will not be detected when companies test the components for multimillion-dollar missile systems, helicopters and aircraft. It was just one of the brazen steps described Tuesday at a Senate Armed Services Committee hearing examining the national security and economic implications of suspect counterfeit electronics &mdash; mostly from China &mdash; inundating the Pentagon's supply chain. ... The committee's ongoing investigation found about 1,800 cases of suspect counterfeit electronics being sold to the Pentagon. The total number of parts in these cases topped 1 million. By the semiconductor industry's estimates, counterfeiting costs $7.5 billion a year in lost revenue and about 11,000 U.S. jobs."<p><a href="http://www.facebook.com/sharer.php?u=http\u005c%3A\u005c%2F\u005c%2Ftech.slashdot.org\u005c%2Fstory\u005c%2F11\u005c%2F11\u005c%2F09\u005c%2F0255231\u005c%2Fus-military-trying-to-weed-out-counterfeit-parts\u005c%3Futm_source\u005c%3Dslashdot\u005c%26utm_medium\u005c%3Dfacebook" target="_blank" title="Share on Facebook"><img src="http://a.fsdn.com/sd/facebook_icon_large.png" /></a>\u000a   \u000a      <a href="http://twitter.com/home?status=US+Military+Trying+To+Weed+Out+Counterfeit+Parts\u005c%3A+http\u005c%3A\u005c%2F\u005c%2Fbit.ly\u005c%2Fv5Z3ha" target="_blank" title="Share on Twitter"><img src="http://a.fsdn.com/sd/twitter_icon_large.png" /></a></p><p><a href="http://tech.slashdot.org/story/11/11/09/0255231/us-military-trying-to-weed-out-counterfeit-parts?utm_source=rss1.0moreanon&amp;utm_medium=feed">Read more of this story</a> at Slashdot.</p><img height="1" src="http://feeds.feedburner.com/~r/Slashdot/slashdot/~4/-usKu_CCkbM" width="1" />
p336
sS'title_detail'
p337
g1
(g2
g3
(dp338
g63
Vhttp://rss.slashdot.org/Slashdot/slashdot
p339
sg19
S'text/plain'
p340
sg66
Nsg67
g335
stRp341
sg163
(lp342
VSlashdot
p343
aV*
ag255
astRp344
ag1
(g2
g3
(dp345
S'summary_detail'
p346
g1
(g2
g3
(dp347
g63
Vhttp://rss.slashdot.org/Slashdot/slashdot
p348
sg19
S'text/html'
p349
sg66
Nsg67
V<p><a href="http://feedads.g.doubleclick.net/~at/9sTMtouooymRG2aHocnj6ZfgOyM/0/da"><img border="0" ismap="true" src="http://feedads.g.doubleclick.net/~at/9sTMtouooymRG2aHocnj6ZfgOyM/0/di" /></a><br />\u000a<a href="http://feedads.g.doubleclick.net/~at/9sTMtouooymRG2aHocnj6ZfgOyM/1/da"><img border="0" ismap="true" src="http://feedads.g.doubleclick.net/~at/9sTMtouooymRG2aHocnj6ZfgOyM/1/di" /></a></p>Brad1138 writes "You see complaints about the 'next gen' GUI's all over the place, but do we really all hate them? Personally, I don't like them &mdash; I tried very hard to like Unity in Ubuntu 11.04/11.10 before giving up and switching to Mint (I am very happy there currently). But is it the vocal minority doing all the complaining, or is it the majority? Are we just too set in our ways?"<p><a href="http://www.facebook.com/sharer.php?u=http%3A%2F%2Fask.slashdot.org%2Fstory%2F11%2F11%2F09%2F015211%2Fask-slashdot-unitygnome-3win8ios-do-we-really-hate-all-new-guis%3Futm_source%3Dslashdot%26utm_medium%3Dfacebook" target="_blank" title="Share on Facebook"><img src="http://a.fsdn.com/sd/facebook_icon_large.png" /></a>\u000a   \u000a      <a href="http://twitter.com/home?status=Ask+Slashdot%3A+Unity%2FGnome+3%2FWin8%2FiOS+%26mdash%3B+Do+We+Really+Hate+All+New+GUIs%3F%3A+http%3A%2F%2Fbit.ly%2Fv3BbZP" target="_blank" title="Share on Twitter"><img src="http://a.fsdn.com/sd/twitter_icon_large.png" /></a></p><p><a href="http://ask.slashdot.org/story/11/11/09/015211/ask-slashdot-unitygnome-3win8ios-do-we-really-hate-all-new-guis?utm_source=rss1.0moreanon&amp;utm_medium=feed">Read more of this story</a> at Slashdot.</p><img height="1" src="http://feeds.feedburner.com/~r/Slashdot/slashdot/~4/hRIhsi-HDOg" width="1" />
p350
stRp351
sg11
g12
((I2011
I11
I9
I1
I10
I0
I2
I313
I0
t(dtRp352
sg14
(lp353
g1
(g2
g3
(dp354
g17
Vhttp://rss.slashdot.org/~r/Slashdot/slashdot/~3/hRIhsi-HDOg/ask-slashdot-unitygnome-3win8ios-do-we-really-hate-all-new-guis
p355
sg19
g20
sg21
g22
stRp356
asg38
(lp357
g1
(g2
g3
(dp358
g41
Vgnome
p359
sg43
Nsg44
NstRp360
asS'slash_department'
p361
Vstop-moving-my-buttons
p362
sS'feedburner_origlink'
p363
Vhttp://ask.slashdot.org/story/11/11/09/015211/ask-slashdot-unitygnome-3win8ios-do-we-really-hate-all-new-guis?utm_source=rss1.0mainlinkanon&utm_medium=feed
p364
sg7
V2011-11-09T01:10:00+00:00
p365
sS'slash_section'
p366
Vaskslashdot
p367
sg57
g355
sg58
(lp368
g1
(g2
g3
(dtRp369
asS'author_detail'
p370
g1
(g2
g3
(dp371
g72
VSoulskill
p372
stRp373
sS'slash_hit_parade'
p374
V590,586,441,336,64,30,19
p375
sg151
Vhttp://ask.slashdot.org/story/11/11/09/015211/ask-slashdot-unitygnome-3win8ios-do-we-really-hate-all-new-guis?utm_source=rss1.0mainlinkanon&utm_medium=feed
p376
sS'slash_comments'
p377
V590
p378
sg84
VAsk Slashdot: Unity/Gnome 3/Win8/iOS &mdash; Do We Really Hate All New GUIs?
p379
sg101
g372
sg156
V<p><a href="http://feedads.g.doubleclick.net/~at/9sTMtouooymRG2aHocnj6ZfgOyM/0/da"><img border="0" ismap="true" src="http://feedads.g.doubleclick.net/~at/9sTMtouooymRG2aHocnj6ZfgOyM/0/di" /></a><br />\u000a<a href="http://feedads.g.doubleclick.net/~at/9sTMtouooymRG2aHocnj6ZfgOyM/1/da"><img border="0" ismap="true" src="http://feedads.g.doubleclick.net/~at/9sTMtouooymRG2aHocnj6ZfgOyM/1/di" /></a></p>Brad1138 writes "You see complaints about the 'next gen' GUI's all over the place, but do we really all hate them? Personally, I don't like them &mdash; I tried very hard to like Unity in Ubuntu 11.04/11.10 before giving up and switching to Mint (I am very happy there currently). But is it the vocal minority doing all the complaining, or is it the majority? Are we just too set in our ways?"<p><a href="http://www.facebook.com/sharer.php?u=http\u005c%3A\u005c%2F\u005c%2Fask.slashdot.org\u005c%2Fstory\u005c%2F11\u005c%2F11\u005c%2F09\u005c%2F015211\u005c%2Fask-slashdot-unitygnome-3win8ios-do-we-really-hate-all-new-guis\u005c%3Futm_source\u005c%3Dslashdot\u005c%26utm_medium\u005c%3Dfacebook" target="_blank" title="Share on Facebook"><img src="http://a.fsdn.com/sd/facebook_icon_large.png" /></a>\u000a   \u000a      <a href="http://twitter.com/home?status=Ask+Slashdot\u005c%3A+Unity\u005c%2FGnome+3\u005c%2FWin8\u005c%2FiOS+\u005c%26mdash\u005c%3B+Do+We+Really+Hate+All+New+GUIs\u005c%3F\u005c%3A+http\u005c%3A\u005c%2F\u005c%2Fbit.ly\u005c%2Fv3BbZP" target="_blank" title="Share on Twitter"><img src="http://a.fsdn.com/sd/twitter_icon_large.png" /></a></p><p><a href="http://ask.slashdot.org/story/11/11/09/015211/ask-slashdot-unitygnome-3win8ios-do-we-really-hate-all-new-guis?utm_source=rss1.0moreanon&amp;utm_medium=feed">Read more of this story</a> at Slashdot.</p><img height="1" src="http://feeds.feedburner.com/~r/Slashdot/slashdot/~4/hRIhsi-HDOg" width="1" />
p380
sS'title_detail'
p381
g1
(g2
g3
(dp382
g63
Vhttp://rss.slashdot.org/Slashdot/slashdot
p383
sg19
g161
sg66
Nsg67
g379
stRp384
sg163
(lp385
VSlashdot
p386
aV*
ag255
astRp387
ag1
(g2
g3
(dp388
S'summary_detail'
p389
g1
(g2
g3
(dp390
g63
Vhttp://rss.slashdot.org/Slashdot/slashdot
p391
sg19
S'text/html'
p392
sg66
Nsg67
V<p><a href="http://feedads.g.doubleclick.net/~at/QPwgrLsGfOz4U1Tvq1fl0PTKWCs/0/da"><img border="0" ismap="true" src="http://feedads.g.doubleclick.net/~at/QPwgrLsGfOz4U1Tvq1fl0PTKWCs/0/di" /></a><br />\u000a<a href="http://feedads.g.doubleclick.net/~at/QPwgrLsGfOz4U1Tvq1fl0PTKWCs/1/da"><img border="0" ismap="true" src="http://feedads.g.doubleclick.net/~at/QPwgrLsGfOz4U1Tvq1fl0PTKWCs/1/di" /></a></p>MrSeb writes "Long before Facebook and Twitpic, photos were shared by simply handing someone a print. No camera made this easier than the once-ubiquitous Polaroid. Nothing represented instant gratification better in the film era than having a print develop before your eyes, ready to hand out in a minute. Unfortunately for Polaroid, the advent of digital photography sounded the death knell for its iconic instant print cameras. A brief reprieve in the form of inexpensive sticker-printing versions was ended by the cellphone camera revolution. Now, after a decade in remission, Polaroid has returned with a full-up digital camera that incorporates instant printing technology. The Polaroid Z340 is a 14MP digital with an integrated Zink-enabled (Zero Ink) printer. In a nostalgic touch, the new camera prints 3&#215;4-inch images, the same size as the original Polaroid film cameras. Remarkably, all this fits in a one-pound, seven-ounce package, about the same weight as a mid-range DSLR."<p><a href="http://www.facebook.com/sharer.php?u=http%3A%2F%2Fhardware.slashdot.org%2Fstory%2F11%2F11%2F08%2F2329208%2Fpolaroid-this-time-its-digital%3Futm_source%3Dslashdot%26utm_medium%3Dfacebook" target="_blank" title="Share on Facebook"><img src="http://a.fsdn.com/sd/facebook_icon_large.png" /></a>\u000a   \u000a      <a href="http://twitter.com/home?status=Polaroid%3A+This+Time+It's+Digital%3A+http%3A%2F%2Fbit.ly%2FuON5Y7" target="_blank" title="Share on Twitter"><img src="http://a.fsdn.com/sd/twitter_icon_large.png" /></a></p><p><a href="http://hardware.slashdot.org/story/11/11/08/2329208/polaroid-this-time-its-digital?utm_source=rss1.0moreanon&amp;utm_medium=feed">Read more of this story</a> at Slashdot.</p><img height="1" src="http://feeds.feedburner.com/~r/Slashdot/slashdot/~4/OodyV4Vef_I" width="1" />
p393
stRp394
sg11
g12
((I2011
I11
I9
I0
I29
I0
I2
I313
I0
t(dtRp395
sg14
(lp396
g1
(g2
g3
(dp397
g17
Vhttp://rss.slashdot.org/~r/Slashdot/slashdot/~3/OodyV4Vef_I/polaroid-this-time-its-digital
p398
sg19
g20
sg21
g22
stRp399
asg38
(lp400
g1
(g2
g3
(dp401
g41
Vprinter
p402
sg43
Nsg44
NstRp403
asS'slash_department'
p404
Vwho-doesn't-enjoy-voluminous-gadgets
p405
sS'feedburner_origlink'
p406
Vhttp://hardware.slashdot.org/story/11/11/08/2329208/polaroid-this-time-its-digital?utm_source=rss1.0mainlinkanon&utm_medium=feed
p407
sg7
V2011-11-09T00:29:00+00:00
p408
sS'slash_section'
p409
Vhardware
p410
sg57
g398
sg58
(lp411
g1
(g2
g3
(dtRp412
asS'author_detail'
p413
g1
(g2
g3
(dp414
g72
VSoulskill
p415
stRp416
sS'slash_hit_parade'
p417
V107,103,80,70,15,8,2
p418
sg151
Vhttp://hardware.slashdot.org/story/11/11/08/2329208/polaroid-this-time-its-digital?utm_source=rss1.0mainlinkanon&utm_medium=feed
p419
sS'slash_comments'
p420
V107
p421
sg84
VPolaroid: This Time It's Digital
p422
sg101
g415
sg156
V<p><a href="http://feedads.g.doubleclick.net/~at/QPwgrLsGfOz4U1Tvq1fl0PTKWCs/0/da"><img border="0" ismap="true" src="http://feedads.g.doubleclick.net/~at/QPwgrLsGfOz4U1Tvq1fl0PTKWCs/0/di" /></a><br />\u000a<a href="http://feedads.g.doubleclick.net/~at/QPwgrLsGfOz4U1Tvq1fl0PTKWCs/1/da"><img border="0" ismap="true" src="http://feedads.g.doubleclick.net/~at/QPwgrLsGfOz4U1Tvq1fl0PTKWCs/1/di" /></a></p>MrSeb writes "Long before Facebook and Twitpic, photos were shared by simply handing someone a print. No camera made this easier than the once-ubiquitous Polaroid. Nothing represented instant gratification better in the film era than having a print develop before your eyes, ready to hand out in a minute. Unfortunately for Polaroid, the advent of digital photography sounded the death knell for its iconic instant print cameras. A brief reprieve in the form of inexpensive sticker-printing versions was ended by the cellphone camera revolution. Now, after a decade in remission, Polaroid has returned with a full-up digital camera that incorporates instant printing technology. The Polaroid Z340 is a 14MP digital with an integrated Zink-enabled (Zero Ink) printer. In a nostalgic touch, the new camera prints 3&#215;4-inch images, the same size as the original Polaroid film cameras. Remarkably, all this fits in a one-pound, seven-ounce package, about the same weight as a mid-range DSLR."<p><a href="http://www.facebook.com/sharer.php?u=http\u005c%3A\u005c%2F\u005c%2Fhardware.slashdot.org\u005c%2Fstory\u005c%2F11\u005c%2F11\u005c%2F08\u005c%2F2329208\u005c%2Fpolaroid-this-time-its-digital\u005c%3Futm_source\u005c%3Dslashdot\u005c%26utm_medium\u005c%3Dfacebook" target="_blank" title="Share on Facebook"><img src="http://a.fsdn.com/sd/facebook_icon_large.png" /></a>\u000a   \u000a      <a href="http://twitter.com/home?status=Polaroid\u005c%3A+This+Time+It's+Digital\u005c%3A+http\u005c%3A\u005c%2F\u005c%2Fbit.ly\u005c%2FuON5Y7" target="_blank" title="Share on Twitter"><img src="http://a.fsdn.com/sd/twitter_icon_large.png" /></a></p><p><a href="http://hardware.slashdot.org/story/11/11/08/2329208/polaroid-this-time-its-digital?utm_source=rss1.0moreanon&amp;utm_medium=feed">Read more of this story</a> at Slashdot.</p><img height="1" src="http://feeds.feedburner.com/~r/Slashdot/slashdot/~4/OodyV4Vef_I" width="1" />
p423
sS'title_detail'
p424
g1
(g2
g3
(dp425
g63
Vhttp://rss.slashdot.org/Slashdot/slashdot
p426
sg19
S'text/plain'
p427
sg66
Nsg67
g422
stRp428
sg163
(lp429
VSlashdot
p430
aV*
ag255
astRp431
ag1
(g2
g3
(dp432
S'summary_detail'
p433
g1
(g2
g3
(dp434
g63
Vhttp://rss.slashdot.org/Slashdot/slashdot
p435
sg19
S'text/html'
p436
sg66
Nsg67
V<p><a href="http://feedads.g.doubleclick.net/~at/onl3k6TOvpRufywn7smiXXIVcsM/0/da"><img border="0" ismap="true" src="http://feedads.g.doubleclick.net/~at/onl3k6TOvpRufywn7smiXXIVcsM/0/di" /></a><br />\u000a<a href="http://feedads.g.doubleclick.net/~at/onl3k6TOvpRufywn7smiXXIVcsM/1/da"><img border="0" ismap="true" src="http://feedads.g.doubleclick.net/~at/onl3k6TOvpRufywn7smiXXIVcsM/1/di" /></a></p>InfiniteZero writes with this quote from MSNBC:\u000a"Einstein once said, 'A person who has not made his great contribution to science before the age of 30 will never do so.' That peak age has shifted considerably, a new study found, with 48 being prime time for physicists. ... For instance, in physics, in the early 20th century, a rise in young scientists generating prize-winning work coincided with the development of quantum mechanics. In fact, in 1923, the proportion of physicists who did their breakthrough work by age 30 peaked at 31 percent. Those who did their best work by age 40 peaked in 1934 at 78 percent. The proportion of physics laureates producing Nobel Prize-winning work under age 30 or 40 then declined throughout the rest of the century."<p><a href="http://www.facebook.com/sharer.php?u=http%3A%2F%2Fscience.slashdot.org%2Fstory%2F11%2F11%2F08%2F232223%2Fthe-stroke-of-genius-strikes-later-in-life-than-it-used-to%3Futm_source%3Dslashdot%26utm_medium%3Dfacebook" target="_blank" title="Share on Facebook"><img src="http://a.fsdn.com/sd/facebook_icon_large.png" /></a>\u000a   \u000a      <a href="http://twitter.com/home?status=The+Stroke+of+Genius+Strikes+Later+In+Life+Than+It+Used+To%3A+http%3A%2F%2Fbit.ly%2FtFNfpy" target="_blank" title="Share on Twitter"><img src="http://a.fsdn.com/sd/twitter_icon_large.png" /></a></p><p><a href="http://science.slashdot.org/story/11/11/08/232223/the-stroke-of-genius-strikes-later-in-life-than-it-used-to?utm_source=rss1.0moreanon&amp;utm_medium=feed">Read more of this story</a> at Slashdot.</p><img height="1" src="http://feeds.feedburner.com/~r/Slashdot/slashdot/~4/kHDxnEBFyIM" width="1" />
p437
stRp438
sg11
g12
((I2011
I11
I8
I23
I46
I0
I1
I312
I0
t(dtRp439
sg14
(lp440
g1
(g2
g3
(dp441
g17
Vhttp://rss.slashdot.org/~r/Slashdot/slashdot/~3/kHDxnEBFyIM/the-stroke-of-genius-strikes-later-in-life-than-it-used-to
p442
sg19
g20
sg21
g22
stRp443
asg38
(lp444
g1
(g2
g3
(dp445
g41
Vscience
p446
sg43
Nsg44
NstRp447
asS'slash_department'
p448
Vi-blame-reality-tv
p449
sS'feedburner_origlink'
p450
Vhttp://science.slashdot.org/story/11/11/08/232223/the-stroke-of-genius-strikes-later-in-life-than-it-used-to?utm_source=rss1.0mainlinkanon&utm_medium=feed
p451
sg7
V2011-11-08T23:46:00+00:00
p452
sS'slash_section'
p453
Vscience
p454
sg57
g442
sg58
(lp455
g1
(g2
g3
(dtRp456
asS'author_detail'
p457
g1
(g2
g3
(dp458
g72
VSoulskill
p459
stRp460
sS'slash_hit_parade'
p461
V116,111,83,70,27,13,7
p462
sg151
Vhttp://science.slashdot.org/story/11/11/08/232223/the-stroke-of-genius-strikes-later-in-life-than-it-used-to?utm_source=rss1.0mainlinkanon&utm_medium=feed
p463
sS'slash_comments'
p464
V116
p465
sg84
VThe Stroke of Genius Strikes Later In Life Than It Used To
p466
sg101
g459
sg156
V<p><a href="http://feedads.g.doubleclick.net/~at/onl3k6TOvpRufywn7smiXXIVcsM/0/da"><img border="0" ismap="true" src="http://feedads.g.doubleclick.net/~at/onl3k6TOvpRufywn7smiXXIVcsM/0/di" /></a><br />\u000a<a href="http://feedads.g.doubleclick.net/~at/onl3k6TOvpRufywn7smiXXIVcsM/1/da"><img border="0" ismap="true" src="http://feedads.g.doubleclick.net/~at/onl3k6TOvpRufywn7smiXXIVcsM/1/di" /></a></p>InfiniteZero writes with this quote from MSNBC:\u000a"Einstein once said, 'A person who has not made his great contribution to science before the age of 30 will never do so.' That peak age has shifted considerably, a new study found, with 48 being prime time for physicists. ... For instance, in physics, in the early 20th century, a rise in young scientists generating prize-winning work coincided with the development of quantum mechanics. In fact, in 1923, the proportion of physicists who did their breakthrough work by age 30 peaked at 31 percent. Those who did their best work by age 40 peaked in 1934 at 78 percent. The proportion of physics laureates producing Nobel Prize-winning work under age 30 or 40 then declined throughout the rest of the century."<p><a href="http://www.facebook.com/sharer.php?u=http\u005c%3A\u005c%2F\u005c%2Fscience.slashdot.org\u005c%2Fstory\u005c%2F11\u005c%2F11\u005c%2F08\u005c%2F232223\u005c%2Fthe-stroke-of-genius-strikes-later-in-life-than-it-used-to\u005c%3Futm_source\u005c%3Dslashdot\u005c%26utm_medium\u005c%3Dfacebook" target="_blank" title="Share on Facebook"><img src="http://a.fsdn.com/sd/facebook_icon_large.png" /></a>\u000a   \u000a      <a href="http://twitter.com/home?status=The+Stroke+of+Genius+Strikes+Later+In+Life+Than+It+Used+To\u005c%3A+http\u005c%3A\u005c%2F\u005c%2Fbit.ly\u005c%2FtFNfpy" target="_blank" title="Share on Twitter"><img src="http://a.fsdn.com/sd/twitter_icon_large.png" /></a></p><p><a href="http://science.slashdot.org/story/11/11/08/232223/the-stroke-of-genius-strikes-later-in-life-than-it-used-to?utm_source=rss1.0moreanon&amp;utm_medium=feed">Read more of this story</a> at Slashdot.</p><img height="1" src="http://feeds.feedburner.com/~r/Slashdot/slashdot/~4/kHDxnEBFyIM" width="1" />
p467
sS'title_detail'
p468
g1
(g2
g3
(dp469
g63
Vhttp://rss.slashdot.org/Slashdot/slashdot
p470
sg19
S'text/plain'
p471
sg66
Nsg67
g466
stRp472
sg163
(lp473
VSlashdot
p474
aV*
ag255
astRp475
ag1
(g2
g3
(dp476
S'summary_detail'
p477
g1
(g2
g3
(dp478
g63
Vhttp://rss.slashdot.org/Slashdot/slashdot
p479
sg19
S'text/html'
p480
sg66
Nsg67
V<p><a href="http://feedads.g.doubleclick.net/~at/_G4lNK_GqsjFTqFgklmNCuuq7Hc/0/da"><img border="0" ismap="true" src="http://feedads.g.doubleclick.net/~at/_G4lNK_GqsjFTqFgklmNCuuq7Hc/0/di" /></a><br />\u000a<a href="http://feedads.g.doubleclick.net/~at/_G4lNK_GqsjFTqFgklmNCuuq7Hc/1/da"><img border="0" ismap="true" src="http://feedads.g.doubleclick.net/~at/_G4lNK_GqsjFTqFgklmNCuuq7Hc/1/di" /></a></p>Hugh Pickens writes "BBC reports that a technical glitch allowed reporters to listen in on a private conversation between French President Nicolas Sarkozy and US President Barack Obama, made in a backroom meeting at the G20 summit, treating listeners to a rare insight into the importance of personal relationships in international politics. 'I can't stand him any more,' said Mr. Sarkozy of Israeli Prime Minister Benjamin Netanyahu. 'He's a liar.' Mr. Obama replied: 'You're sick of him. I have to deal with him every day!' According to Reuters, the two presidents were apparently 'unaware that the microphones in their meeting room had been switched on, enabling reporters in a separate location to listen in to a simultaneous translation.' The reporters made 'a group decision... not to report the conversation as it was considered private and off-the-record,' but Arrets Sur Images, a French website that covers current affairs, got wind of the exchange and broke the story."<p><a href="http://www.facebook.com/sharer.php?u=http%3A%2F%2Fnews.slashdot.org%2Fstory%2F11%2F11%2F08%2F220244%2Ftechnical-glitch-lets-reporters-eavesdrop-on-obama-sarkozy%3Futm_source%3Dslashdot%26utm_medium%3Dfacebook" target="_blank" title="Share on Facebook"><img src="http://a.fsdn.com/sd/facebook_icon_large.png" /></a>\u000a   \u000a      <a href="http://twitter.com/home?status=Technical+Glitch+Lets+Reporters+Eavesdrop+On+Obama%2C+Sarkozy%3A+http%3A%2F%2Fbit.ly%2FukHiZn" target="_blank" title="Share on Twitter"><img src="http://a.fsdn.com/sd/twitter_icon_large.png" /></a></p><p><a href="http://news.slashdot.org/story/11/11/08/220244/technical-glitch-lets-reporters-eavesdrop-on-obama-sarkozy?utm_source=rss1.0moreanon&amp;utm_medium=feed">Read more of this story</a> at Slashdot.</p><img height="1" src="http://feeds.feedburner.com/~r/Slashdot/slashdot/~4/RArQP8BA9R4" width="1" />
p481
stRp482
sg11
g12
((I2011
I11
I8
I23
I5
I0
I1
I312
I0
t(dtRp483
sg14
(lp484
g1
(g2
g3
(dp485
g17
Vhttp://rss.slashdot.org/~r/Slashdot/slashdot/~3/RArQP8BA9R4/technical-glitch-lets-reporters-eavesdrop-on-obama-sarkozy
p486
sg19
g20
sg21
g22
stRp487
asg38
(lp488
g1
(g2
g3
(dp489
g41
Vthemedia
p490
sg43
Nsg44
NstRp491
asS'slash_department'
p492
Vhow-all-government-interactions-should-be
p493
sS'feedburner_origlink'
p494
Vhttp://news.slashdot.org/story/11/11/08/220244/technical-glitch-lets-reporters-eavesdrop-on-obama-sarkozy?utm_source=rss1.0mainlinkanon&utm_medium=feed
p495
sg7
V2011-11-08T23:05:00+00:00
p496
sS'slash_section'
p497
Vnews
p498
sg57
g486
sg58
(lp499
g1
(g2
g3
(dtRp500
asS'author_detail'
p501
g1
(g2
g3
(dp502
g72
VSoulskill
p503
stRp504
sS'slash_hit_parade'
p505
V291,289,207,161,43,27,17
p506
sg151
Vhttp://news.slashdot.org/story/11/11/08/220244/technical-glitch-lets-reporters-eavesdrop-on-obama-sarkozy?utm_source=rss1.0mainlinkanon&utm_medium=feed
p507
sS'slash_comments'
p508
V291
p509
sg84
VTechnical Glitch Lets Reporters Eavesdrop On Obama, Sarkozy
p510
sg101
g503
sg156
V<p><a href="http://feedads.g.doubleclick.net/~at/_G4lNK_GqsjFTqFgklmNCuuq7Hc/0/da"><img border="0" ismap="true" src="http://feedads.g.doubleclick.net/~at/_G4lNK_GqsjFTqFgklmNCuuq7Hc/0/di" /></a><br />\u000a<a href="http://feedads.g.doubleclick.net/~at/_G4lNK_GqsjFTqFgklmNCuuq7Hc/1/da"><img border="0" ismap="true" src="http://feedads.g.doubleclick.net/~at/_G4lNK_GqsjFTqFgklmNCuuq7Hc/1/di" /></a></p>Hugh Pickens writes "BBC reports that a technical glitch allowed reporters to listen in on a private conversation between French President Nicolas Sarkozy and US President Barack Obama, made in a backroom meeting at the G20 summit, treating listeners to a rare insight into the importance of personal relationships in international politics. 'I can't stand him any more,' said Mr. Sarkozy of Israeli Prime Minister Benjamin Netanyahu. 'He's a liar.' Mr. Obama replied: 'You're sick of him. I have to deal with him every day!' According to Reuters, the two presidents were apparently 'unaware that the microphones in their meeting room had been switched on, enabling reporters in a separate location to listen in to a simultaneous translation.' The reporters made 'a group decision... not to report the conversation as it was considered private and off-the-record,' but Arrets Sur Images, a French website that covers current affairs, got wind of the exchange and broke the story."<p><a href="http://www.facebook.com/sharer.php?u=http\u005c%3A\u005c%2F\u005c%2Fnews.slashdot.org\u005c%2Fstory\u005c%2F11\u005c%2F11\u005c%2F08\u005c%2F220244\u005c%2Ftechnical-glitch-lets-reporters-eavesdrop-on-obama-sarkozy\u005c%3Futm_source\u005c%3Dslashdot\u005c%26utm_medium\u005c%3Dfacebook" target="_blank" title="Share on Facebook"><img src="http://a.fsdn.com/sd/facebook_icon_large.png" /></a>\u000a   \u000a      <a href="http://twitter.com/home?status=Technical+Glitch+Lets+Reporters+Eavesdrop+On+Obama\u005c%2C+Sarkozy\u005c%3A+http\u005c%3A\u005c%2F\u005c%2Fbit.ly\u005c%2FukHiZn" target="_blank" title="Share on Twitter"><img src="http://a.fsdn.com/sd/twitter_icon_large.png" /></a></p><p><a href="http://news.slashdot.org/story/11/11/08/220244/technical-glitch-lets-reporters-eavesdrop-on-obama-sarkozy?utm_source=rss1.0moreanon&amp;utm_medium=feed">Read more of this story</a> at Slashdot.</p><img height="1" src="http://feeds.feedburner.com/~r/Slashdot/slashdot/~4/RArQP8BA9R4" width="1" />
p511
sS'title_detail'
p512
g1
(g2
g3
(dp513
g63
Vhttp://rss.slashdot.org/Slashdot/slashdot
p514
sg19
S'text/plain'
p515
sg66
Nsg67
g510
stRp516
sg163
(lp517
VSlashdot
p518
aV*
ag255
astRp519
ag1
(g2
g3
(dp520
S'summary_detail'
p521
g1
(g2
g3
(dp522
g63
Vhttp://rss.slashdot.org/Slashdot/slashdot
p523
sg19
S'text/html'
p524
sg66
Nsg67
V<p><a href="http://feedads.g.doubleclick.net/~at/6ePKF3fJB3_AvDbNPIG4CSwYTKE/0/da"><img border="0" ismap="true" src="http://feedads.g.doubleclick.net/~at/6ePKF3fJB3_AvDbNPIG4CSwYTKE/0/di" /></a><br />\u000a<a href="http://feedads.g.doubleclick.net/~at/6ePKF3fJB3_AvDbNPIG4CSwYTKE/1/da"><img border="0" ismap="true" src="http://feedads.g.doubleclick.net/~at/6ePKF3fJB3_AvDbNPIG4CSwYTKE/1/di" /></a></p>itwbennett writes "The Banshee music application, and Mono, the open source implementation of Microsoft's .NET framework, on which Banshee is dependent, may be excluded from the next release of Ubuntu. In 'a blog entry titled Bansheegeddon,' Banshee and Mono developer Joseph Michael Shields says the reasons given for the change are that Banshee is 'not well maintained' and 'porting music store to GTK3 is blocked on banshee ported to GTK3.' Other reasons mentioned but not in the session logs are complaints that it doesn't work on ARM. Ubuntu Community Manager Jono Bacon pointed out in a blog post that the decision to drop Banshee, Mono or other apps that are dependent on Mono has not been finalized. But the blogosphere is lit up with speculation that this is a deliberate move to exclude Mono because of its emulation of Microsoft .NET."<p><a href="http://www.facebook.com/sharer.php?u=http%3A%2F%2Flinux.slashdot.org%2Fstory%2F11%2F11%2F08%2F215243%2Fbanshee-mono-may-be-dropped-from-ubuntu-default%3Futm_source%3Dslashdot%26utm_medium%3Dfacebook" target="_blank" title="Share on Facebook"><img src="http://a.fsdn.com/sd/facebook_icon_large.png" /></a>\u000a   \u000a      <a href="http://twitter.com/home?status=Banshee%2C+Mono+May+Be+Dropped+From+Ubuntu+Default%3A+http%3A%2F%2Fbit.ly%2Fv2EZtg" target="_blank" title="Share on Twitter"><img src="http://a.fsdn.com/sd/twitter_icon_large.png" /></a></p><p><a href="http://linux.slashdot.org/story/11/11/08/215243/banshee-mono-may-be-dropped-from-ubuntu-default?utm_source=rss1.0moreanon&amp;utm_medium=feed">Read more of this story</a> at Slashdot.</p><img height="1" src="http://feeds.feedburner.com/~r/Slashdot/slashdot/~4/6u_Asg_GRfA" width="1" />
p525
stRp526
sg11
g12
((I2011
I11
I8
I22
I21
I0
I1
I312
I0
t(dtRp527
sg14
(lp528
g1
(g2
g3
(dp529
g17
Vhttp://rss.slashdot.org/~r/Slashdot/slashdot/~3/6u_Asg_GRfA/banshee-mono-may-be-dropped-from-ubuntu-default
p530
sg19
g20
sg21
g22
stRp531
asg38
(lp532
g1
(g2
g3
(dp533
g41
Vubuntu
p534
sg43
Nsg44
NstRp535
asS'slash_department'
p536
Vvoted-off-the-island
p537
sS'feedburner_origlink'
p538
Vhttp://linux.slashdot.org/story/11/11/08/215243/banshee-mono-may-be-dropped-from-ubuntu-default?utm_source=rss1.0mainlinkanon&utm_medium=feed
p539
sg7
V2011-11-08T22:21:00+00:00
p540
sS'slash_section'
p541
Vlinux
p542
sg57
g530
sg58
(lp543
g1
(g2
g3
(dtRp544
asS'author_detail'
p545
g1
(g2
g3
(dp546
g72
VSoulskill
p547
stRp548
sS'slash_hit_parade'
p549
V200,197,143,111,30,6,2
p550
sg151
Vhttp://linux.slashdot.org/story/11/11/08/215243/banshee-mono-may-be-dropped-from-ubuntu-default?utm_source=rss1.0mainlinkanon&utm_medium=feed
p551
sS'slash_comments'
p552
V200
p553
sg84
VBanshee, Mono May Be Dropped From Ubuntu Default
p554
sg101
g547
sg156
V<p><a href="http://feedads.g.doubleclick.net/~at/6ePKF3fJB3_AvDbNPIG4CSwYTKE/0/da"><img border="0" ismap="true" src="http://feedads.g.doubleclick.net/~at/6ePKF3fJB3_AvDbNPIG4CSwYTKE/0/di" /></a><br />\u000a<a href="http://feedads.g.doubleclick.net/~at/6ePKF3fJB3_AvDbNPIG4CSwYTKE/1/da"><img border="0" ismap="true" src="http://feedads.g.doubleclick.net/~at/6ePKF3fJB3_AvDbNPIG4CSwYTKE/1/di" /></a></p>itwbennett writes "The Banshee music application, and Mono, the open source implementation of Microsoft's .NET framework, on which Banshee is dependent, may be excluded from the next release of Ubuntu. In 'a blog entry titled Bansheegeddon,' Banshee and Mono developer Joseph Michael Shields says the reasons given for the change are that Banshee is 'not well maintained' and 'porting music store to GTK3 is blocked on banshee ported to GTK3.' Other reasons mentioned but not in the session logs are complaints that it doesn't work on ARM. Ubuntu Community Manager Jono Bacon pointed out in a blog post that the decision to drop Banshee, Mono or other apps that are dependent on Mono has not been finalized. But the blogosphere is lit up with speculation that this is a deliberate move to exclude Mono because of its emulation of Microsoft .NET."<p><a href="http://www.facebook.com/sharer.php?u=http\u005c%3A\u005c%2F\u005c%2Flinux.slashdot.org\u005c%2Fstory\u005c%2F11\u005c%2F11\u005c%2F08\u005c%2F215243\u005c%2Fbanshee-mono-may-be-dropped-from-ubuntu-default\u005c%3Futm_source\u005c%3Dslashdot\u005c%26utm_medium\u005c%3Dfacebook" target="_blank" title="Share on Facebook"><img src="http://a.fsdn.com/sd/facebook_icon_large.png" /></a>\u000a   \u000a      <a href="http://twitter.com/home?status=Banshee\u005c%2C+Mono+May+Be+Dropped+From+Ubuntu+Default\u005c%3A+http\u005c%3A\u005c%2F\u005c%2Fbit.ly\u005c%2Fv2EZtg" target="_blank" title="Share on Twitter"><img src="http://a.fsdn.com/sd/twitter_icon_large.png" /></a></p><p><a href="http://linux.slashdot.org/story/11/11/08/215243/banshee-mono-may-be-dropped-from-ubuntu-default?utm_source=rss1.0moreanon&amp;utm_medium=feed">Read more of this story</a> at Slashdot.</p><img height="1" src="http://feeds.feedburner.com/~r/Slashdot/slashdot/~4/6u_Asg_GRfA" width="1" />
p555
sS'title_detail'
p556
g1
(g2
g3
(dp557
g63
Vhttp://rss.slashdot.org/Slashdot/slashdot
p558
sg19
S'text/plain'
p559
sg66
Nsg67
g554
stRp560
sg163
(lp561
VSlashdot
p562
aV*
ag255
astRp563
ag1
(g2
g3
(dp564
S'summary_detail'
p565
g1
(g2
g3
(dp566
g63
Vhttp://rss.slashdot.org/Slashdot/slashdot
p567
sg19
S'text/html'
p568
sg66
Nsg67
V<p><a href="http://feedads.g.doubleclick.net/~at/Al3TTndk7VdXsIc4vXbbzSaQGlc/0/da"><img border="0" ismap="true" src="http://feedads.g.doubleclick.net/~at/Al3TTndk7VdXsIc4vXbbzSaQGlc/0/di" /></a><br />\u000a<a href="http://feedads.g.doubleclick.net/~at/Al3TTndk7VdXsIc4vXbbzSaQGlc/1/da"><img border="0" ismap="true" src="http://feedads.g.doubleclick.net/~at/Al3TTndk7VdXsIc4vXbbzSaQGlc/1/di" /></a></p>An anonymous reader writes "Honda has just unveiled a new, upgraded version of its famous humanoid robot, Asimo. Its appearance didn't change much, but the new robot is lighter, faster, and stronger. It can walk on uneven surfaces, run backwards, and even jump on one foot. The new Asimo also has more dexterous hands and better image and voice recognition to interact with people. Honda's big push is clearly in the direction of making Asimo more autonomous, and useful, in human environments."<p><a href="http://www.facebook.com/sharer.php?u=http%3A%2F%2Fhardware.slashdot.org%2Fstory%2F11%2F11%2F08%2F2135240%2Fnew-more-autonomous-asimo-robot-unveiled-by-honda%3Futm_source%3Dslashdot%26utm_medium%3Dfacebook" target="_blank" title="Share on Facebook"><img src="http://a.fsdn.com/sd/facebook_icon_large.png" /></a>\u000a   \u000a      <a href="http://twitter.com/home?status=New%2C+More+Autonomous+Asimo+Robot+Unveiled+By+Honda%3A+http%3A%2F%2Fbit.ly%2Fw1ApLa" target="_blank" title="Share on Twitter"><img src="http://a.fsdn.com/sd/twitter_icon_large.png" /></a></p><p><a href="http://hardware.slashdot.org/story/11/11/08/2135240/new-more-autonomous-asimo-robot-unveiled-by-honda?utm_source=rss1.0moreanon&amp;utm_medium=feed">Read more of this story</a> at Slashdot.</p><img height="1" src="http://feeds.feedburner.com/~r/Slashdot/slashdot/~4/FHZAzM89EDo" width="1" />
p569
stRp570
sg11
g12
((I2011
I11
I8
I21
I58
I0
I1
I312
I0
t(dtRp571
sg14
(lp572
g1
(g2
g3
(dp573
g17
Vhttp://rss.slashdot.org/~r/Slashdot/slashdot/~3/FHZAzM89EDo/new-more-autonomous-asimo-robot-unveiled-by-honda
p574
sg19
g20
sg21
g22
stRp575
asg38
(lp576
g1
(g2
g3
(dp577
g41
Vrobot
p578
sg43
Nsg44
NstRp579
asS'slash_department'
p580
Vcan-now-kill-all-humans
p581
sS'feedburner_origlink'
p582
Vhttp://hardware.slashdot.org/story/11/11/08/2135240/new-more-autonomous-asimo-robot-unveiled-by-honda?utm_source=rss1.0mainlinkanon&utm_medium=feed
p583
sg7
V2011-11-08T21:58:00+00:00
p584
sS'slash_section'
p585
Vhardware
p586
sg57
g574
sg58
(lp587
g1
(g2
g3
(dtRp588
asS'author_detail'
p589
g1
(g2
g3
(dp590
g72
VSoulskill
p591
stRp592
sS'slash_hit_parade'
p593
V46,45,36,28,6,1,1
p594
sg151
Vhttp://hardware.slashdot.org/story/11/11/08/2135240/new-more-autonomous-asimo-robot-unveiled-by-honda?utm_source=rss1.0mainlinkanon&utm_medium=feed
p595
sS'slash_comments'
p596
V46
p597
sg84
VNew, More Autonomous Asimo Robot Unveiled By Honda
p598
sg101
g591
sg156
V<p><a href="http://feedads.g.doubleclick.net/~at/Al3TTndk7VdXsIc4vXbbzSaQGlc/0/da"><img border="0" ismap="true" src="http://feedads.g.doubleclick.net/~at/Al3TTndk7VdXsIc4vXbbzSaQGlc/0/di" /></a><br />\u000a<a href="http://feedads.g.doubleclick.net/~at/Al3TTndk7VdXsIc4vXbbzSaQGlc/1/da"><img border="0" ismap="true" src="http://feedads.g.doubleclick.net/~at/Al3TTndk7VdXsIc4vXbbzSaQGlc/1/di" /></a></p>An anonymous reader writes "Honda has just unveiled a new, upgraded version of its famous humanoid robot, Asimo. Its appearance didn't change much, but the new robot is lighter, faster, and stronger. It can walk on uneven surfaces, run backwards, and even jump on one foot. The new Asimo also has more dexterous hands and better image and voice recognition to interact with people. Honda's big push is clearly in the direction of making Asimo more autonomous, and useful, in human environments."<p><a href="http://www.facebook.com/sharer.php?u=http\u005c%3A\u005c%2F\u005c%2Fhardware.slashdot.org\u005c%2Fstory\u005c%2F11\u005c%2F11\u005c%2F08\u005c%2F2135240\u005c%2Fnew-more-autonomous-asimo-robot-unveiled-by-honda\u005c%3Futm_source\u005c%3Dslashdot\u005c%26utm_medium\u005c%3Dfacebook" target="_blank" title="Share on Facebook"><img src="http://a.fsdn.com/sd/facebook_icon_large.png" /></a>\u000a   \u000a      <a href="http://twitter.com/home?status=New\u005c%2C+More+Autonomous+Asimo+Robot+Unveiled+By+Honda\u005c%3A+http\u005c%3A\u005c%2F\u005c%2Fbit.ly\u005c%2Fw1ApLa" target="_blank" title="Share on Twitter"><img src="http://a.fsdn.com/sd/twitter_icon_large.png" /></a></p><p><a href="http://hardware.slashdot.org/story/11/11/08/2135240/new-more-autonomous-asimo-robot-unveiled-by-honda?utm_source=rss1.0moreanon&amp;utm_medium=feed">Read more of this story</a> at Slashdot.</p><img height="1" src="http://feeds.feedburner.com/~r/Slashdot/slashdot/~4/FHZAzM89EDo" width="1" />
p599
sS'title_detail'
p600
g1
(g2
g3
(dp601
g63
Vhttp://rss.slashdot.org/Slashdot/slashdot
p602
sg19
S'text/plain'
p603
sg66
Nsg67
g598
stRp604
sg163
(lp605
VSlashdot
p606
aV*
ag255
astRp607
ag1
(g2
g3
(dp608
S'summary_detail'
p609
g1
(g2
g3
(dp610
g63
Vhttp://rss.slashdot.org/Slashdot/slashdot
p611
sg19
S'text/html'
p612
sg66
Nsg67
V<p><a href="http://feedads.g.doubleclick.net/~at/RboQhZ2pqNtc4QCUksK2ztAVsEE/0/da"><img border="0" ismap="true" src="http://feedads.g.doubleclick.net/~at/RboQhZ2pqNtc4QCUksK2ztAVsEE/0/di" /></a><br />\u000a<a href="http://feedads.g.doubleclick.net/~at/RboQhZ2pqNtc4QCUksK2ztAVsEE/1/da"><img border="0" ismap="true" src="http://feedads.g.doubleclick.net/~at/RboQhZ2pqNtc4QCUksK2ztAVsEE/1/di" /></a></p>Rambo Tribble writes "Reuters reports HP is seeking to sell WebOS, at the bidding of its financial advisers. Sounds like open sourcing it is off the table. From the article: 'HP is trying to figure out how to recoup its investment in Palm, viewed by many analysts and investors as an expensive foray into the smartphone market that has not paid off. Several technology companies have expressed an interest in buying the division, which is seen as attractive for its patents, the sources said. Amazon.com Inc, Research In Motion, IBM, Oracle Corp and Intel Corp are considered to be among the companies likely to be interested in the asset, industry sources said.'"<p><a href="http://www.facebook.com/sharer.php?u=http%3A%2F%2Fnews.slashdot.org%2Fstory%2F11%2F11%2F08%2F2011203%2Fhp-pondering-sale-of-webos%3Futm_source%3Dslashdot%26utm_medium%3Dfacebook" target="_blank" title="Share on Facebook"><img src="http://a.fsdn.com/sd/facebook_icon_large.png" /></a>\u000a   \u000a      <a href="http://twitter.com/home?status=HP+Pondering+Sale+of+WebOS%3A+http%3A%2F%2Fbit.ly%2Fs8CscR" target="_blank" title="Share on Twitter"><img src="http://a.fsdn.com/sd/twitter_icon_large.png" /></a></p><p><a href="http://news.slashdot.org/story/11/11/08/2011203/hp-pondering-sale-of-webos?utm_source=rss1.0moreanon&amp;utm_medium=feed">Read more of this story</a> at Slashdot.</p><img height="1" src="http://feeds.feedburner.com/~r/Slashdot/slashdot/~4/NrEcVghmgVU" width="1" />
p613
stRp614
sg11
g12
((I2011
I11
I8
I21
I38
I0
I1
I312
I0
t(dtRp615
sg14
(lp616
g1
(g2
g3
(dp617
g17
Vhttp://rss.slashdot.org/~r/Slashdot/slashdot/~3/NrEcVghmgVU/hp-pondering-sale-of-webos
p618
sg19
g20
sg21
g22
stRp619
asg38
(lp620
g1
(g2
g3
(dp621
g41
Vhp
p622
sg43
Nsg44
NstRp623
asS'slash_department'
p624
Vhistorically-predictable
p625
sS'feedburner_origlink'
p626
Vhttp://news.slashdot.org/story/11/11/08/2011203/hp-pondering-sale-of-webos?utm_source=rss1.0mainlinkanon&utm_medium=feed
p627
sg7
V2011-11-08T21:38:00+00:00
p628
sS'slash_section'
p629
Vnews
p630
sg57
g618
sg58
(lp631
g1
(g2
g3
(dtRp632
asS'author_detail'
p633
g1
(g2
g3
(dp634
g72
VSoulskill
p635
stRp636
sS'slash_hit_parade'
p637
V85,84,66,56,10,3,1
p638
sg151
Vhttp://news.slashdot.org/story/11/11/08/2011203/hp-pondering-sale-of-webos?utm_source=rss1.0mainlinkanon&utm_medium=feed
p639
sS'slash_comments'
p640
V85
p641
sg84
VHP Pondering Sale of WebOS
p642
sg101
g635
sg156
V<p><a href="http://feedads.g.doubleclick.net/~at/RboQhZ2pqNtc4QCUksK2ztAVsEE/0/da"><img border="0" ismap="true" src="http://feedads.g.doubleclick.net/~at/RboQhZ2pqNtc4QCUksK2ztAVsEE/0/di" /></a><br />\u000a<a href="http://feedads.g.doubleclick.net/~at/RboQhZ2pqNtc4QCUksK2ztAVsEE/1/da"><img border="0" ismap="true" src="http://feedads.g.doubleclick.net/~at/RboQhZ2pqNtc4QCUksK2ztAVsEE/1/di" /></a></p>Rambo Tribble writes "Reuters reports HP is seeking to sell WebOS, at the bidding of its financial advisers. Sounds like open sourcing it is off the table. From the article: 'HP is trying to figure out how to recoup its investment in Palm, viewed by many analysts and investors as an expensive foray into the smartphone market that has not paid off. Several technology companies have expressed an interest in buying the division, which is seen as attractive for its patents, the sources said. Amazon.com Inc, Research In Motion, IBM, Oracle Corp and Intel Corp are considered to be among the companies likely to be interested in the asset, industry sources said.'"<p><a href="http://www.facebook.com/sharer.php?u=http\u005c%3A\u005c%2F\u005c%2Fnews.slashdot.org\u005c%2Fstory\u005c%2F11\u005c%2F11\u005c%2F08\u005c%2F2011203\u005c%2Fhp-pondering-sale-of-webos\u005c%3Futm_source\u005c%3Dslashdot\u005c%26utm_medium\u005c%3Dfacebook" target="_blank" title="Share on Facebook"><img src="http://a.fsdn.com/sd/facebook_icon_large.png" /></a>\u000a   \u000a      <a href="http://twitter.com/home?status=HP+Pondering+Sale+of+WebOS\u005c%3A+http\u005c%3A\u005c%2F\u005c%2Fbit.ly\u005c%2Fs8CscR" target="_blank" title="Share on Twitter"><img src="http://a.fsdn.com/sd/twitter_icon_large.png" /></a></p><p><a href="http://news.slashdot.org/story/11/11/08/2011203/hp-pondering-sale-of-webos?utm_source=rss1.0moreanon&amp;utm_medium=feed">Read more of this story</a> at Slashdot.</p><img height="1" src="http://feeds.feedburner.com/~r/Slashdot/slashdot/~4/NrEcVghmgVU" width="1" />
p643
sS'title_detail'
p644
g1
(g2
g3
(dp645
g63
Vhttp://rss.slashdot.org/Slashdot/slashdot
p646
sg19
S'text/plain'
p647
sg66
Nsg67
g642
stRp648
sg163
(lp649
VSlashdot
p650
aV*
ag255
astRp651
ag1
(g2
g3
(dp652
S'summary_detail'
p653
g1
(g2
g3
(dp654
g63
Vhttp://rss.slashdot.org/Slashdot/slashdot
p655
sg19
S'text/html'
p656
sg66
Nsg67
V<p><a href="http://feedads.g.doubleclick.net/~at/Ley0-9F7j05lg01jNU7vzQELLB8/0/da"><img border="0" ismap="true" src="http://feedads.g.doubleclick.net/~at/Ley0-9F7j05lg01jNU7vzQELLB8/0/di" /></a><br />\u000a<a href="http://feedads.g.doubleclick.net/~at/Ley0-9F7j05lg01jNU7vzQELLB8/1/da"><img border="0" ismap="true" src="http://feedads.g.doubleclick.net/~at/Ley0-9F7j05lg01jNU7vzQELLB8/1/di" /></a></p>Today Mozilla announced the launch of Firefox 8.0. The headline features this time around include adding Twitter as a search bar option, tab loading tweaks, and the default disabling of addons installed by third-parties. "Sometimes you download third-party software and are surprised to discover that an add-on has also installed itself in your browser without asking permission. At Mozilla, we think you should be in control, so we are disabling add-ons installed by third parties without your permission and letting you pick the ones you want to keep." Here are the release notes and download links.<p><a href="http://www.facebook.com/sharer.php?u=http%3A%2F%2Fnews.slashdot.org%2Fstory%2F11%2F11%2F08%2F2050206%2Ffirefox-80-released%3Futm_source%3Dslashdot%26utm_medium%3Dfacebook" target="_blank" title="Share on Facebook"><img src="http://a.fsdn.com/sd/facebook_icon_large.png" /></a>\u000a   \u000a      <a href="http://twitter.com/home?status=Firefox+8.0+Released%3A+http%3A%2F%2Fbit.ly%2FvRy7lf" target="_blank" title="Share on Twitter"><img src="http://a.fsdn.com/sd/twitter_icon_large.png" /></a></p><p><a href="http://news.slashdot.org/story/11/11/08/2050206/firefox-80-released?utm_source=rss1.0moreanon&amp;utm_medium=feed">Read more of this story</a> at Slashdot.</p><img height="1" src="http://feeds.feedburner.com/~r/Slashdot/slashdot/~4/kq5DAIDE6fw" width="1" />
p657
stRp658
sg11
g12
((I2011
I11
I8
I21
I14
I0
I1
I312
I0
t(dtRp659
sg14
(lp660
g1
(g2
g3
(dp661
g17
Vhttp://rss.slashdot.org/~r/Slashdot/slashdot/~3/kq5DAIDE6fw/firefox-80-released
p662
sg19
g20
sg21
g22
stRp663
asg38
(lp664
g1
(g2
g3
(dp665
g41
Vfirefox
p666
sg43
Nsg44
NstRp667
asS'slash_department'
p668
Valmost-caught-up-to-ie's-version-number
p669
sS'feedburner_origlink'
p670
Vhttp://news.slashdot.org/story/11/11/08/2050206/firefox-80-released?utm_source=rss1.0mainlinkanon&utm_medium=feed
p671
sg7
V2011-11-08T21:14:00+00:00
p672
sS'slash_section'
p673
Vnews
p674
sg57
g662
sg58
(lp675
g1
(g2
g3
(dtRp676
asS'author_detail'
p677
g1
(g2
g3
(dp678
g72
VSoulskill
p679
stRp680
sS'slash_hit_parade'
p681
V320,318,229,168,27,14,10
p682
sg151
Vhttp://news.slashdot.org/story/11/11/08/2050206/firefox-80-released?utm_source=rss1.0mainlinkanon&utm_medium=feed
p683
sS'slash_comments'
p684
V320
p685
sg84
VFirefox 8.0 Released
p686
sg101
g679
sg156
V<p><a href="http://feedads.g.doubleclick.net/~at/Ley0-9F7j05lg01jNU7vzQELLB8/0/da"><img border="0" ismap="true" src="http://feedads.g.doubleclick.net/~at/Ley0-9F7j05lg01jNU7vzQELLB8/0/di" /></a><br />\u000a<a href="http://feedads.g.doubleclick.net/~at/Ley0-9F7j05lg01jNU7vzQELLB8/1/da"><img border="0" ismap="true" src="http://feedads.g.doubleclick.net/~at/Ley0-9F7j05lg01jNU7vzQELLB8/1/di" /></a></p>Today Mozilla announced the launch of Firefox 8.0. The headline features this time around include adding Twitter as a search bar option, tab loading tweaks, and the default disabling of addons installed by third-parties. "Sometimes you download third-party software and are surprised to discover that an add-on has also installed itself in your browser without asking permission. At Mozilla, we think you should be in control, so we are disabling add-ons installed by third parties without your permission and letting you pick the ones you want to keep." Here are the release notes and download links.<p><a href="http://www.facebook.com/sharer.php?u=http\u005c%3A\u005c%2F\u005c%2Fnews.slashdot.org\u005c%2Fstory\u005c%2F11\u005c%2F11\u005c%2F08\u005c%2F2050206\u005c%2Ffirefox-80-released\u005c%3Futm_source\u005c%3Dslashdot\u005c%26utm_medium\u005c%3Dfacebook" target="_blank" title="Share on Facebook"><img src="http://a.fsdn.com/sd/facebook_icon_large.png" /></a>\u000a   \u000a      <a href="http://twitter.com/home?status=Firefox+8.0+Released\u005c%3A+http\u005c%3A\u005c%2F\u005c%2Fbit.ly\u005c%2FvRy7lf" target="_blank" title="Share on Twitter"><img src="http://a.fsdn.com/sd/twitter_icon_large.png" /></a></p><p><a href="http://news.slashdot.org/story/11/11/08/2050206/firefox-80-released?utm_source=rss1.0moreanon&amp;utm_medium=feed">Read more of this story</a> at Slashdot.</p><img height="1" src="http://feeds.feedburner.com/~r/Slashdot/slashdot/~4/kq5DAIDE6fw" width="1" />
p687
sS'title_detail'
p688
g1
(g2
g3
(dp689
g63
Vhttp://rss.slashdot.org/Slashdot/slashdot
p690
sg19
S'text/plain'
p691
sg66
Nsg67
g686
stRp692
sg163
(lp693
VSlashdot
p694
aV*
ag255
astRp695
ag1
(g2
g3
(dp696
S'summary_detail'
p697
g1
(g2
g3
(dp698
g63
Vhttp://rss.slashdot.org/Slashdot/slashdot
p699
sg19
S'text/html'
p700
sg66
Nsg67
V<p><a href="http://feedads.g.doubleclick.net/~at/al5OTUMAIpecOw3j3ldxONe2Aps/0/da"><img border="0" ismap="true" src="http://feedads.g.doubleclick.net/~at/al5OTUMAIpecOw3j3ldxONe2Aps/0/di" /></a><br />\u000a<a href="http://feedads.g.doubleclick.net/~at/al5OTUMAIpecOw3j3ldxONe2Aps/1/da"><img border="0" ismap="true" src="http://feedads.g.doubleclick.net/~at/al5OTUMAIpecOw3j3ldxONe2Aps/1/di" /></a></p>kodiaktau writes "Computer scientist Landon Cox and students at Duke University are working in conjunction with researchers at Microsoft and Technicolor Research to design and develop image analysis tools to identify changes to pictures and videos. The technology, called YouProve, compares original images to create a trust certificate that can be compared against derivative images and produce a heat-map of changes (PDF) between the two. This can be of particular importance when reviewing large amounts of crowd-sourced content to see if image tampering has occurred."<p><a href="http://www.facebook.com/sharer.php?u=http%3A%2F%2Fit.slashdot.org%2Fstory%2F11%2F11%2F08%2F1935215%2Fimage-analysis-and-verification-to-track-pictures%3Futm_source%3Dslashdot%26utm_medium%3Dfacebook" target="_blank" title="Share on Facebook"><img src="http://a.fsdn.com/sd/facebook_icon_large.png" /></a>\u000a   \u000a      <a href="http://twitter.com/home?status=Image+Analysis+and+Verification+To+Track+Pictures%3A+http%3A%2F%2Fbit.ly%2FvuJppF" target="_blank" title="Share on Twitter"><img src="http://a.fsdn.com/sd/twitter_icon_large.png" /></a></p><p><a href="http://it.slashdot.org/story/11/11/08/1935215/image-analysis-and-verification-to-track-pictures?utm_source=rss1.0moreanon&amp;utm_medium=feed">Read more of this story</a> at Slashdot.</p><img height="1" src="http://feeds.feedburner.com/~r/Slashdot/slashdot/~4/0caArWUmp7M" width="1" />
p701
stRp702
sg11
g12
((I2011
I11
I8
I20
I55
I0
I1
I312
I0
t(dtRp703
sg14
(lp704
g1
(g2
g3
(dp705
g17
Vhttp://rss.slashdot.org/~r/Slashdot/slashdot/~3/0caArWUmp7M/image-analysis-and-verification-to-track-pictures
p706
sg19
g20
sg21
g22
stRp707
asg38
(lp708
g1
(g2
g3
(dp709
g41
Vandroid
p710
sg43
Nsg44
NstRp711
asS'slash_department'
p712
Vyou-can-tell-by-the-pixels
p713
sS'feedburner_origlink'
p714
Vhttp://it.slashdot.org/story/11/11/08/1935215/image-analysis-and-verification-to-track-pictures?utm_source=rss1.0mainlinkanon&utm_medium=feed
p715
sg7
V2011-11-08T20:55:00+00:00
p716
sS'slash_section'
p717
Vit
p718
sg57
g706
sg58
(lp719
g1
(g2
g3
(dtRp720
asS'author_detail'
p721
g1
(g2
g3
(dp722
g72
VSoulskill
p723
stRp724
sS'slash_hit_parade'
p725
V27,26,15,11,0,0,0
p726
sg151
Vhttp://it.slashdot.org/story/11/11/08/1935215/image-analysis-and-verification-to-track-pictures?utm_source=rss1.0mainlinkanon&utm_medium=feed
p727
sS'slash_comments'
p728
V27
p729
sg84
VImage Analysis and Verification To Track Pictures
p730
sg101
g723
sg156
V<p><a href="http://feedads.g.doubleclick.net/~at/al5OTUMAIpecOw3j3ldxONe2Aps/0/da"><img border="0" ismap="true" src="http://feedads.g.doubleclick.net/~at/al5OTUMAIpecOw3j3ldxONe2Aps/0/di" /></a><br />\u000a<a href="http://feedads.g.doubleclick.net/~at/al5OTUMAIpecOw3j3ldxONe2Aps/1/da"><img border="0" ismap="true" src="http://feedads.g.doubleclick.net/~at/al5OTUMAIpecOw3j3ldxONe2Aps/1/di" /></a></p>kodiaktau writes "Computer scientist Landon Cox and students at Duke University are working in conjunction with researchers at Microsoft and Technicolor Research to design and develop image analysis tools to identify changes to pictures and videos. The technology, called YouProve, compares original images to create a trust certificate that can be compared against derivative images and produce a heat-map of changes (PDF) between the two. This can be of particular importance when reviewing large amounts of crowd-sourced content to see if image tampering has occurred."<p><a href="http://www.facebook.com/sharer.php?u=http\u005c%3A\u005c%2F\u005c%2Fit.slashdot.org\u005c%2Fstory\u005c%2F11\u005c%2F11\u005c%2F08\u005c%2F1935215\u005c%2Fimage-analysis-and-verification-to-track-pictures\u005c%3Futm_source\u005c%3Dslashdot\u005c%26utm_medium\u005c%3Dfacebook" target="_blank" title="Share on Facebook"><img src="http://a.fsdn.com/sd/facebook_icon_large.png" /></a>\u000a   \u000a      <a href="http://twitter.com/home?status=Image+Analysis+and+Verification+To+Track+Pictures\u005c%3A+http\u005c%3A\u005c%2F\u005c%2Fbit.ly\u005c%2FvuJppF" target="_blank" title="Share on Twitter"><img src="http://a.fsdn.com/sd/twitter_icon_large.png" /></a></p><p><a href="http://it.slashdot.org/story/11/11/08/1935215/image-analysis-and-verification-to-track-pictures?utm_source=rss1.0moreanon&amp;utm_medium=feed">Read more of this story</a> at Slashdot.</p><img height="1" src="http://feeds.feedburner.com/~r/Slashdot/slashdot/~4/0caArWUmp7M" width="1" />
p731
sS'title_detail'
p732
g1
(g2
g3
(dp733
g63
Vhttp://rss.slashdot.org/Slashdot/slashdot
p734
sg19
S'text/plain'
p735
sg66
Nsg67
g730
stRp736
sg163
(lp737
VSlashdot
p738
aV*
ag255
astRp739
ag1
(g2
g3
(dp740
S'summary_detail'
p741
g1
(g2
g3
(dp742
g63
Vhttp://rss.slashdot.org/Slashdot/slashdot
p743
sg19
S'text/html'
p744
sg66
Nsg67
V<p><a href="http://feedads.g.doubleclick.net/~at/YBgK824fOd1NDNtfv4zsDQvMsbA/0/da"><img border="0" ismap="true" src="http://feedads.g.doubleclick.net/~at/YBgK824fOd1NDNtfv4zsDQvMsbA/0/di" /></a><br />\u000a<a href="http://feedads.g.doubleclick.net/~at/YBgK824fOd1NDNtfv4zsDQvMsbA/1/da"><img border="0" ismap="true" src="http://feedads.g.doubleclick.net/~at/YBgK824fOd1NDNtfv4zsDQvMsbA/1/di" /></a></p>jcombel writes with this excerpt:\u000a"As the Supreme Court gets ready to hear oral arguments in a case Tuesday that could determine if authorities can track U.S. citizens with GPS vehicle trackers without a warrant, a young man in California has come forward to Wired to reveal that he found not one but two different devices on his vehicle recently. The 25-year-old resident of San Jose, California, says he found the first one about three weeks ago on his Volvo SUV while visiting his mother in Modesto, about 80 miles northeast of San Jose. After contacting Wired and allowing a photographer to snap pictures of the device, it was swapped out and replaced with a second tracking device. A witness also reported seeing a strange man looking beneath the vehicle of the young man&rsquo;s girlfriend while her car was parked at work, suggesting that a tracking device may have been retrieved from her car. Then things got really weird when police showed up during a Wired interview with the man."<p><a href="http://www.facebook.com/sharer.php?u=http%3A%2F%2Fyro.slashdot.org%2Fstory%2F11%2F11%2F08%2F199221%2Ftwo-new-fed-gps-trackers-found-on-suv%3Futm_source%3Dslashdot%26utm_medium%3Dfacebook" target="_blank" title="Share on Facebook"><img src="http://a.fsdn.com/sd/facebook_icon_large.png" /></a>\u000a   \u000a      <a href="http://twitter.com/home?status=Two+New+Fed+GPS+Trackers+Found+On+SUV%3A+http%3A%2F%2Fbit.ly%2FupUJJr" target="_blank" title="Share on Twitter"><img src="http://a.fsdn.com/sd/twitter_icon_large.png" /></a></p><p><a href="http://yro.slashdot.org/story/11/11/08/199221/two-new-fed-gps-trackers-found-on-suv?utm_source=rss1.0moreanon&amp;utm_medium=feed">Read more of this story</a> at Slashdot.</p><img height="1" src="http://feeds.feedburner.com/~r/Slashdot/slashdot/~4/PA-Kisd37po" width="1" />
p745
stRp746
sg11
g12
((I2011
I11
I8
I20
I15
I0
I1
I312
I0
t(dtRp747
sg14
(lp748
g1
(g2
g3
(dp749
g17
Vhttp://rss.slashdot.org/~r/Slashdot/slashdot/~3/PA-Kisd37po/two-new-fed-gps-trackers-found-on-suv
p750
sg19
g20
sg21
g22
stRp751
asg38
(lp752
g1
(g2
g3
(dp753
g41
Vgovernment
p754
sg43
Nsg44
NstRp755
asS'slash_department'
p756
Vtake-two-they're-small
p757
sS'feedburner_origlink'
p758
Vhttp://yro.slashdot.org/story/11/11/08/199221/two-new-fed-gps-trackers-found-on-suv?utm_source=rss1.0mainlinkanon&utm_medium=feed
p759
sg7
V2011-11-08T20:15:00+00:00
p760
sS'slash_section'
p761
Vyro
p762
sg57
g750
sg58
(lp763
g1
(g2
g3
(dtRp764
asS'author_detail'
p765
g1
(g2
g3
(dp766
g72
VSoulskill
p767
stRp768
sS'slash_hit_parade'
p769
V627,620,459,367,63,33,18
p770
sg151
Vhttp://yro.slashdot.org/story/11/11/08/199221/two-new-fed-gps-trackers-found-on-suv?utm_source=rss1.0mainlinkanon&utm_medium=feed
p771
sS'slash_comments'
p772
V627
p773
sg84
VTwo New Fed GPS Trackers Found On SUV
p774
sg101
g767
sg156
V<p><a href="http://feedads.g.doubleclick.net/~at/YBgK824fOd1NDNtfv4zsDQvMsbA/0/da"><img border="0" ismap="true" src="http://feedads.g.doubleclick.net/~at/YBgK824fOd1NDNtfv4zsDQvMsbA/0/di" /></a><br />\u000a<a href="http://feedads.g.doubleclick.net/~at/YBgK824fOd1NDNtfv4zsDQvMsbA/1/da"><img border="0" ismap="true" src="http://feedads.g.doubleclick.net/~at/YBgK824fOd1NDNtfv4zsDQvMsbA/1/di" /></a></p>jcombel writes with this excerpt:\u000a"As the Supreme Court gets ready to hear oral arguments in a case Tuesday that could determine if authorities can track U.S. citizens with GPS vehicle trackers without a warrant, a young man in California has come forward to Wired to reveal that he found not one but two different devices on his vehicle recently. The 25-year-old resident of San Jose, California, says he found the first one about three weeks ago on his Volvo SUV while visiting his mother in Modesto, about 80 miles northeast of San Jose. After contacting Wired and allowing a photographer to snap pictures of the device, it was swapped out and replaced with a second tracking device. A witness also reported seeing a strange man looking beneath the vehicle of the young man&rsquo;s girlfriend while her car was parked at work, suggesting that a tracking device may have been retrieved from her car. Then things got really weird when police showed up during a Wired interview with the man."<p><a href="http://www.facebook.com/sharer.php?u=http\u005c%3A\u005c%2F\u005c%2Fyro.slashdot.org\u005c%2Fstory\u005c%2F11\u005c%2F11\u005c%2F08\u005c%2F199221\u005c%2Ftwo-new-fed-gps-trackers-found-on-suv\u005c%3Futm_source\u005c%3Dslashdot\u005c%26utm_medium\u005c%3Dfacebook" target="_blank" title="Share on Facebook"><img src="http://a.fsdn.com/sd/facebook_icon_large.png" /></a>\u000a   \u000a      <a href="http://twitter.com/home?status=Two+New+Fed+GPS+Trackers+Found+On+SUV\u005c%3A+http\u005c%3A\u005c%2F\u005c%2Fbit.ly\u005c%2FupUJJr" target="_blank" title="Share on Twitter"><img src="http://a.fsdn.com/sd/twitter_icon_large.png" /></a></p><p><a href="http://yro.slashdot.org/story/11/11/08/199221/two-new-fed-gps-trackers-found-on-suv?utm_source=rss1.0moreanon&amp;utm_medium=feed">Read more of this story</a> at Slashdot.</p><img height="1" src="http://feeds.feedburner.com/~r/Slashdot/slashdot/~4/PA-Kisd37po" width="1" />
p775
sS'title_detail'
p776
g1
(g2
g3
(dp777
g63
Vhttp://rss.slashdot.org/Slashdot/slashdot
p778
sg19
S'text/plain'
p779
sg66
Nsg67
g774
stRp780
sg163
(lp781
VSlashdot
p782
aV*
ag255
astRp783
asS'canto_update'
p784
F1320836642.2290261
sS'headers'
p785
(dp786
S'x-xss-protection'
p787
S'1; mode=block'
p788
sS'x-content-type-options'
p789
S'nosniff'
p790
sS'expires'
p791
S'Wed, 09 Nov 2011 11:03:58 GMT'
p792
sS'server'
p793
S'GSE'
p794
sS'last-modified'
p795
S'Wed, 09 Nov 2011 11:03:42 GMT'
p796
sS'connection'
p797
S'close'
p798
sS'etag'
p799
S'pQxXd5PrV5HPaG42AWrF1oNjMXw'
p800
sS'cache-control'
p801
S'private, max-age=0'
p802
sS'date'
p803
S'Wed, 09 Nov 2011 11:03:58 GMT'
p804
sS'content-type'
p805
S'text/xml; charset=ISO-8859-1'
p806
ssg17
S'http://rss.slashdot.org/Slashdot/slashdot'
p807
sS'version'
p808
S'rss10'
p809
sg163
(lp810
sS'etag'
p811
g800
sS'namespaces'
p812
(dp813
S''
Vhttp://www.w3.org/2005/Atom
p814
sS'sy'
p815
Vhttp://purl.org/rss/1.0/modules/syndication/
p816
sS'taxo'
p817
Vhttp://purl.org/rss/1.0/modules/taxonomy/
p818
sS'admin'
p819
Vhttp://webns.net/mvcb/
p820
sS'dc'
p821
Vhttp://purl.org/dc/elements/1.1/
p822
sS'content'
p823
Vhttp://purl.org/rss/1.0/modules/content/
p824
sS'rdf'
p825
Vhttp://www.w3.org/1999/02/22-rdf-syntax-ns#
p826
sS'slash'
p827
Vhttp://purl.org/rss/1.0/modules/slash/
p828
sS'feedburner'
p829
Vhttp://rssnamespace.org/feedburner/ext/1.0
p830
ssS'canto_version'
p831
(I0
I7
I10
tp832
stRp833
.